ARM GAS  C:\Users\valer\AppData\Local\Temp\ccuL1CoJ.s 			page 1


   1              		.syntax unified
   2              		.cpu cortex-m3
   3              		.fpu softvfp
   4              		.eabi_attribute 20, 1
   5              		.eabi_attribute 21, 1
   6              		.eabi_attribute 23, 3
   7              		.eabi_attribute 24, 1
   8              		.eabi_attribute 25, 1
   9              		.eabi_attribute 26, 1
  10              		.eabi_attribute 30, 1
  11              		.eabi_attribute 34, 1
  12              		.eabi_attribute 18, 4
  13              		.thumb
  14              		.syntax unified
  15              		.file	"main.c"
  16              		.text
  17              	.Ltext0:
  18              		.cfi_sections	.debug_frame
  19              		.section	.text.sys_init,"ax",%progbits
  20              		.align	2
  21              		.global	sys_init
  22              		.thumb
  23              		.thumb_func
  24              		.type	sys_init, %function
  25              	sys_init:
  26              	.LFB64:
  27              		.file 1 "main.c"
   1:main.c        **** 
   2:main.c        **** #include <project.h>
   3:main.c        **** #include <stdbool.h>
   4:main.c        **** 
   5:main.c        **** void sys_init();
   6:main.c        **** 
   7:main.c        **** int main(void)
   8:main.c        **** {
   9:main.c        ****     CyGlobalIntEnable; /* Enable global interrupts. */
  10:main.c        ****     
  11:main.c        ****     //multiplexer for the three potentiometers. not enough ADC ports so using three ports and multi
  12:main.c        ****     Pot_Values_Start();
  13:main.c        ****     ADC_SAR_1_Start();
  14:main.c        **** 
  15:main.c        ****     //uint8 ch;
  16:main.c        ****     /* Start SCB UART TX+RX operation */
  17:main.c        ****     //UART_Start();
  18:main.c        **** 
  19:main.c        ****     /* Transmit String through UART TX Line */
  20:main.c        ****     //UART_PutString("CY8CKIT-059 USB-UART");
  21:main.c        ****     
  22:main.c        ****     uint32 rxData;
  23:main.c        ****     char test_string[] = "Hello World\n\r";
  24:main.c        ****  
  25:main.c        ****     sys_init();
  26:main.c        ****  
  27:main.c        ****     UART_PutString(test_string); // print test_string
  28:main.c        ****     
  29:main.c        ****     int16 Pot_1_Val;
  30:main.c        ****     int16 Pot_2_Val;
ARM GAS  C:\Users\valer\AppData\Local\Temp\ccuL1CoJ.s 			page 2


  31:main.c        ****     int16 Pot_3_Val;
  32:main.c        ****     
  33:main.c        ****     
  34:main.c        ****     for(;;)
  35:main.c        ****     {
  36:main.c        ****     Pot_Values_Select(0);
  37:main.c        ****     CyDelay(25);
  38:main.c        ****     ADC_SAR_1_StartConvert();
  39:main.c        ****     ADC_SAR_1_IsEndConversion(ADC_SAR_1_WAIT_FOR_RESULT);
  40:main.c        ****     Pot_1_Val = ADC_SAR_1_GetResult16();
  41:main.c        ****     
  42:main.c        ****     Pot_Values_Select(1);
  43:main.c        ****     CyDelay(25);
  44:main.c        ****     ADC_SAR_1_StartConvert();
  45:main.c        ****     ADC_SAR_1_IsEndConversion(ADC_SAR_1_WAIT_FOR_RESULT);
  46:main.c        ****     Pot_2_Val = ADC_SAR_1_GetResult16();
  47:main.c        ****     
  48:main.c        ****     Pot_Values_Select(2);
  49:main.c        ****     CyDelay(25);
  50:main.c        ****     ADC_SAR_1_StartConvert();
  51:main.c        ****     ADC_SAR_1_IsEndConversion(ADC_SAR_1_WAIT_FOR_RESULT);
  52:main.c        ****     Pot_3_Val = ADC_SAR_1_GetResult16();
  53:main.c        ****     
  54:main.c        ****     
  55:main.c        ****     
  56:main.c        ****     rxData = UART_GetChar(); // store received characters in temporary variable
  57:main.c        ****  
  58:main.c        ****     if(rxData) { // make sure data is non-zero
  59:main.c        ****     UART_PutChar(rxData); // echo characters in terminal window
  60:main.c        ****     
  61:main.c        ****      /* Get received character or zero if nothing has been received yet
  62:main.c        ****      */
  63:main.c        ****      //ch = UART_GetChar();
  64:main.c        ****      //if(0u != ch)
  65:main.c        ****      //{
  66:main.c        ****      /* Send the data through UART. This functions is blocking and waits until
  67:main.c        ****      there is an entry into the TX FIFO. */
  68:main.c        ****      //UART_PutChar(ch);
  69:main.c        ****     
  70:main.c        ****     }
  71:main.c        **** 
  72:main.c        **** }
  73:main.c        **** }
  74:main.c        **** 
  75:main.c        **** void sys_init (void) {
  28              		.loc 1 75 0
  29              		.cfi_startproc
  30              		@ args = 0, pretend = 0, frame = 0
  31              		@ frame_needed = 0, uses_anonymous_args = 0
  32 0000 08B5     		push	{r3, lr}
  33              		.cfi_def_cfa_offset 8
  34              		.cfi_offset 3, -8
  35              		.cfi_offset 14, -4
  76:main.c        ****    UART_Start();
  36              		.loc 1 76 0
  37 0002 FFF7FEFF 		bl	UART_Start
  38              	.LVL0:
ARM GAS  C:\Users\valer\AppData\Local\Temp\ccuL1CoJ.s 			page 3


  39 0006 08BD     		pop	{r3, pc}
  40              		.cfi_endproc
  41              	.LFE64:
  42              		.size	sys_init, .-sys_init
  43              		.section	.text.main,"ax",%progbits
  44              		.align	2
  45              		.global	main
  46              		.thumb
  47              		.thumb_func
  48              		.type	main, %function
  49              	main:
  50              	.LFB63:
   8:main.c        ****     CyGlobalIntEnable; /* Enable global interrupts. */
  51              		.loc 1 8 0
  52              		.cfi_startproc
  53              		@ args = 0, pretend = 0, frame = 16
  54              		@ frame_needed = 0, uses_anonymous_args = 0
  55 0000 10B5     		push	{r4, lr}
  56              		.cfi_def_cfa_offset 8
  57              		.cfi_offset 4, -8
  58              		.cfi_offset 14, -4
  59 0002 84B0     		sub	sp, sp, #16
  60              		.cfi_def_cfa_offset 24
   9:main.c        ****     
  61              		.loc 1 9 0
  62              		.syntax unified
  63              	@ 9 "main.c" 1
  64 0004 62B6     		CPSIE   i
  65              	@ 0 "" 2
  12:main.c        ****     ADC_SAR_1_Start();
  66              		.loc 1 12 0
  67              		.thumb
  68              		.syntax unified
  69 0006 FFF7FEFF 		bl	Pot_Values_Start
  70              	.LVL1:
  13:main.c        **** 
  71              		.loc 1 13 0
  72 000a FFF7FEFF 		bl	ADC_SAR_1_Start
  73              	.LVL2:
  23:main.c        ****  
  74              		.loc 1 23 0
  75 000e 1C4B     		ldr	r3, .L7
  76 0010 6C46     		mov	r4, sp
  77 0012 0FCB     		ldmia	r3, {r0, r1, r2, r3}
  78 0014 07C4     		stmia	r4!, {r0, r1, r2}
  79 0016 2380     		strh	r3, [r4]	@ movhi
  25:main.c        ****  
  80              		.loc 1 25 0
  81 0018 FFF7FEFF 		bl	sys_init
  82              	.LVL3:
  27:main.c        ****     
  83              		.loc 1 27 0
  84 001c 6846     		mov	r0, sp
  85 001e FFF7FEFF 		bl	UART_PutString
  86              	.LVL4:
  87              	.L4:
  36:main.c        ****     CyDelay(25);
ARM GAS  C:\Users\valer\AppData\Local\Temp\ccuL1CoJ.s 			page 4


  88              		.loc 1 36 0
  89 0022 0020     		movs	r0, #0
  90 0024 FFF7FEFF 		bl	Pot_Values_Select
  91              	.LVL5:
  37:main.c        ****     ADC_SAR_1_StartConvert();
  92              		.loc 1 37 0
  93 0028 1920     		movs	r0, #25
  94 002a FFF7FEFF 		bl	CyDelay
  95              	.LVL6:
  38:main.c        ****     ADC_SAR_1_IsEndConversion(ADC_SAR_1_WAIT_FOR_RESULT);
  96              		.loc 1 38 0
  97 002e FFF7FEFF 		bl	ADC_SAR_1_StartConvert
  98              	.LVL7:
  39:main.c        ****     Pot_1_Val = ADC_SAR_1_GetResult16();
  99              		.loc 1 39 0
 100 0032 0020     		movs	r0, #0
 101 0034 FFF7FEFF 		bl	ADC_SAR_1_IsEndConversion
 102              	.LVL8:
  40:main.c        ****     
 103              		.loc 1 40 0
 104 0038 FFF7FEFF 		bl	ADC_SAR_1_GetResult16
 105              	.LVL9:
  42:main.c        ****     CyDelay(25);
 106              		.loc 1 42 0
 107 003c 0120     		movs	r0, #1
 108 003e FFF7FEFF 		bl	Pot_Values_Select
 109              	.LVL10:
  43:main.c        ****     ADC_SAR_1_StartConvert();
 110              		.loc 1 43 0
 111 0042 1920     		movs	r0, #25
 112 0044 FFF7FEFF 		bl	CyDelay
 113              	.LVL11:
  44:main.c        ****     ADC_SAR_1_IsEndConversion(ADC_SAR_1_WAIT_FOR_RESULT);
 114              		.loc 1 44 0
 115 0048 FFF7FEFF 		bl	ADC_SAR_1_StartConvert
 116              	.LVL12:
  45:main.c        ****     Pot_2_Val = ADC_SAR_1_GetResult16();
 117              		.loc 1 45 0
 118 004c 0020     		movs	r0, #0
 119 004e FFF7FEFF 		bl	ADC_SAR_1_IsEndConversion
 120              	.LVL13:
  46:main.c        ****     
 121              		.loc 1 46 0
 122 0052 FFF7FEFF 		bl	ADC_SAR_1_GetResult16
 123              	.LVL14:
  48:main.c        ****     CyDelay(25);
 124              		.loc 1 48 0
 125 0056 0220     		movs	r0, #2
 126 0058 FFF7FEFF 		bl	Pot_Values_Select
 127              	.LVL15:
  49:main.c        ****     ADC_SAR_1_StartConvert();
 128              		.loc 1 49 0
 129 005c 1920     		movs	r0, #25
 130 005e FFF7FEFF 		bl	CyDelay
 131              	.LVL16:
  50:main.c        ****     ADC_SAR_1_IsEndConversion(ADC_SAR_1_WAIT_FOR_RESULT);
 132              		.loc 1 50 0
ARM GAS  C:\Users\valer\AppData\Local\Temp\ccuL1CoJ.s 			page 5


 133 0062 FFF7FEFF 		bl	ADC_SAR_1_StartConvert
 134              	.LVL17:
  51:main.c        ****     Pot_3_Val = ADC_SAR_1_GetResult16();
 135              		.loc 1 51 0
 136 0066 0020     		movs	r0, #0
 137 0068 FFF7FEFF 		bl	ADC_SAR_1_IsEndConversion
 138              	.LVL18:
  52:main.c        ****     
 139              		.loc 1 52 0
 140 006c FFF7FEFF 		bl	ADC_SAR_1_GetResult16
 141              	.LVL19:
  56:main.c        ****  
 142              		.loc 1 56 0
 143 0070 FFF7FEFF 		bl	UART_GetChar
 144              	.LVL20:
  58:main.c        ****     UART_PutChar(rxData); // echo characters in terminal window
 145              		.loc 1 58 0
 146 0074 0028     		cmp	r0, #0
 147 0076 D4D0     		beq	.L4
  59:main.c        ****     
 148              		.loc 1 59 0
 149 0078 FFF7FEFF 		bl	UART_PutChar
 150              	.LVL21:
 151 007c D1E7     		b	.L4
 152              	.L8:
 153 007e 00BF     		.align	2
 154              	.L7:
 155 0080 00000000 		.word	.LC0
 156              		.cfi_endproc
 157              	.LFE63:
 158              		.size	main, .-main
 159              		.section	.rodata.str1.4,"aMS",%progbits,1
 160              		.align	2
 161              	.LC0:
 162 0000 48656C6C 		.ascii	"Hello World\012\015\000"
 162      6F20576F 
 162      726C640A 
 162      0D00
 163              		.text
 164              	.Letext0:
 165              		.file 2 "c:\\program files (x86)\\cypress\\psoc creator\\4.2\\psoc creator\\import\\gnu\\arm\\5.4.
 166              		.file 3 "c:\\program files (x86)\\cypress\\psoc creator\\4.2\\psoc creator\\import\\gnu\\arm\\5.4.
 167              		.file 4 "Generated_Source\\PSoC5/cytypes.h"
 168              		.file 5 "Generated_Source\\PSoC5/UART.h"
 169              		.file 6 "Generated_Source\\PSoC5/Pot_Values.h"
 170              		.file 7 "Generated_Source\\PSoC5/ADC_SAR_1.h"
 171              		.file 8 "Generated_Source\\PSoC5/CyLib.h"
 172              		.file 9 "Generated_Source\\PSoC5/core_cm3.h"