ARM GAS  C:\Users\valer\AppData\Local\Temp\ccNDDXY6.s 			page 1


   1              		.syntax unified
   2              		.cpu cortex-m3
   3              		.fpu softvfp
   4              		.eabi_attribute 20, 1
   5              		.eabi_attribute 21, 1
   6              		.eabi_attribute 23, 3
   7              		.eabi_attribute 24, 1
   8              		.eabi_attribute 25, 1
   9              		.eabi_attribute 26, 1
  10              		.eabi_attribute 30, 4
  11              		.eabi_attribute 34, 1
  12              		.eabi_attribute 18, 4
  13              		.thumb
  14              		.syntax unified
  15              		.file	"cyfitter_cfg.c"
  16              		.text
  17              	.Ltext0:
  18              		.cfi_sections	.debug_frame
  19              		.section	.text.SetAnalogRoutingPumps,"ax",%progbits
  20              		.align	1
  21              		.global	SetAnalogRoutingPumps
  22              		.thumb
  23              		.thumb_func
  24              		.type	SetAnalogRoutingPumps, %function
  25              	SetAnalogRoutingPumps:
  26              	.LFB7:
  27              		.file 1 "Generated_Source\\PSoC5\\cyfitter_cfg.c"
   1:Generated_Source\PSoC5/cyfitter_cfg.c **** 
   2:Generated_Source\PSoC5/cyfitter_cfg.c **** /*******************************************************************************
   3:Generated_Source\PSoC5/cyfitter_cfg.c **** * File Name: cyfitter_cfg.c
   4:Generated_Source\PSoC5/cyfitter_cfg.c **** * 
   5:Generated_Source\PSoC5/cyfitter_cfg.c **** * PSoC Creator  4.2
   6:Generated_Source\PSoC5/cyfitter_cfg.c **** *
   7:Generated_Source\PSoC5/cyfitter_cfg.c **** * Description:
   8:Generated_Source\PSoC5/cyfitter_cfg.c **** * This file contains device initialization code.
   9:Generated_Source\PSoC5/cyfitter_cfg.c **** * Except for the user defined sections in CyClockStartupError(), this file should not be modified.
  10:Generated_Source\PSoC5/cyfitter_cfg.c **** * This file is automatically generated by PSoC Creator.
  11:Generated_Source\PSoC5/cyfitter_cfg.c **** *
  12:Generated_Source\PSoC5/cyfitter_cfg.c **** ********************************************************************************
  13:Generated_Source\PSoC5/cyfitter_cfg.c **** * Copyright (c) 2007-2018 Cypress Semiconductor.  All rights reserved.
  14:Generated_Source\PSoC5/cyfitter_cfg.c **** * You may use this file only in accordance with the license, terms, conditions, 
  15:Generated_Source\PSoC5/cyfitter_cfg.c **** * disclaimers, and limitations in the end user license agreement accompanying 
  16:Generated_Source\PSoC5/cyfitter_cfg.c **** * the software package with which this file was provided.
  17:Generated_Source\PSoC5/cyfitter_cfg.c **** ********************************************************************************/
  18:Generated_Source\PSoC5/cyfitter_cfg.c **** 
  19:Generated_Source\PSoC5/cyfitter_cfg.c **** #include <string.h>
  20:Generated_Source\PSoC5/cyfitter_cfg.c **** #include "cytypes.h"
  21:Generated_Source\PSoC5/cyfitter_cfg.c **** #include "cydevice_trm.h"
  22:Generated_Source\PSoC5/cyfitter_cfg.c **** #include "cyfitter.h"
  23:Generated_Source\PSoC5/cyfitter_cfg.c **** #include "CyLib.h"
  24:Generated_Source\PSoC5/cyfitter_cfg.c **** #include "cyfitter_cfg.h"
  25:Generated_Source\PSoC5/cyfitter_cfg.c **** #include "cyapicallbacks.h"
  26:Generated_Source\PSoC5/cyfitter_cfg.c **** 
  27:Generated_Source\PSoC5/cyfitter_cfg.c **** #define CY_NEED_CYCLOCKSTARTUPERROR 1
  28:Generated_Source\PSoC5/cyfitter_cfg.c **** 
  29:Generated_Source\PSoC5/cyfitter_cfg.c **** 
  30:Generated_Source\PSoC5/cyfitter_cfg.c **** #if defined(__GNUC__) || defined(__ARMCC_VERSION)
ARM GAS  C:\Users\valer\AppData\Local\Temp\ccNDDXY6.s 			page 2


  31:Generated_Source\PSoC5/cyfitter_cfg.c ****     #define CYPACKED 
  32:Generated_Source\PSoC5/cyfitter_cfg.c ****     #define CYPACKED_ATTR __attribute__ ((packed))
  33:Generated_Source\PSoC5/cyfitter_cfg.c ****     #define CYALIGNED __attribute__ ((aligned))
  34:Generated_Source\PSoC5/cyfitter_cfg.c ****     #define CY_CFG_UNUSED __attribute__ ((unused))
  35:Generated_Source\PSoC5/cyfitter_cfg.c ****     #ifndef CY_CFG_SECTION
  36:Generated_Source\PSoC5/cyfitter_cfg.c ****         #define CY_CFG_SECTION __attribute__ ((section(".psocinit")))
  37:Generated_Source\PSoC5/cyfitter_cfg.c ****     #endif
  38:Generated_Source\PSoC5/cyfitter_cfg.c ****     
  39:Generated_Source\PSoC5/cyfitter_cfg.c ****     #if defined(__ARMCC_VERSION)
  40:Generated_Source\PSoC5/cyfitter_cfg.c ****         #define CY_CFG_MEMORY_BARRIER() __memory_changed()
  41:Generated_Source\PSoC5/cyfitter_cfg.c ****     #else
  42:Generated_Source\PSoC5/cyfitter_cfg.c ****         #define CY_CFG_MEMORY_BARRIER() __sync_synchronize()
  43:Generated_Source\PSoC5/cyfitter_cfg.c ****     #endif
  44:Generated_Source\PSoC5/cyfitter_cfg.c ****     
  45:Generated_Source\PSoC5/cyfitter_cfg.c **** #elif defined(__ICCARM__)
  46:Generated_Source\PSoC5/cyfitter_cfg.c ****     #include <intrinsics.h>
  47:Generated_Source\PSoC5/cyfitter_cfg.c **** 
  48:Generated_Source\PSoC5/cyfitter_cfg.c ****     #define CYPACKED __packed
  49:Generated_Source\PSoC5/cyfitter_cfg.c ****     #define CYPACKED_ATTR 
  50:Generated_Source\PSoC5/cyfitter_cfg.c ****     #define CYALIGNED _Pragma("data_alignment=4")
  51:Generated_Source\PSoC5/cyfitter_cfg.c ****     #define CY_CFG_UNUSED _Pragma("diag_suppress=Pe177")
  52:Generated_Source\PSoC5/cyfitter_cfg.c ****     #define CY_CFG_SECTION _Pragma("location=\".psocinit\"")
  53:Generated_Source\PSoC5/cyfitter_cfg.c ****     
  54:Generated_Source\PSoC5/cyfitter_cfg.c ****     #define CY_CFG_MEMORY_BARRIER() __DMB()
  55:Generated_Source\PSoC5/cyfitter_cfg.c ****     
  56:Generated_Source\PSoC5/cyfitter_cfg.c **** #else
  57:Generated_Source\PSoC5/cyfitter_cfg.c ****     #error Unsupported toolchain
  58:Generated_Source\PSoC5/cyfitter_cfg.c **** #endif
  59:Generated_Source\PSoC5/cyfitter_cfg.c **** 
  60:Generated_Source\PSoC5/cyfitter_cfg.c **** #ifndef CYCODE
  61:Generated_Source\PSoC5/cyfitter_cfg.c ****     #define CYCODE
  62:Generated_Source\PSoC5/cyfitter_cfg.c **** #endif
  63:Generated_Source\PSoC5/cyfitter_cfg.c **** #ifndef CYDATA
  64:Generated_Source\PSoC5/cyfitter_cfg.c ****     #define CYDATA
  65:Generated_Source\PSoC5/cyfitter_cfg.c **** #endif
  66:Generated_Source\PSoC5/cyfitter_cfg.c **** #ifndef CYFAR
  67:Generated_Source\PSoC5/cyfitter_cfg.c ****     #define CYFAR
  68:Generated_Source\PSoC5/cyfitter_cfg.c **** #endif
  69:Generated_Source\PSoC5/cyfitter_cfg.c **** #ifndef CYXDATA
  70:Generated_Source\PSoC5/cyfitter_cfg.c ****     #define CYXDATA
  71:Generated_Source\PSoC5/cyfitter_cfg.c **** #endif
  72:Generated_Source\PSoC5/cyfitter_cfg.c **** 
  73:Generated_Source\PSoC5/cyfitter_cfg.c **** 
  74:Generated_Source\PSoC5/cyfitter_cfg.c **** CY_CFG_UNUSED
  75:Generated_Source\PSoC5/cyfitter_cfg.c **** static void CYMEMZERO(void *s, size_t n);
  76:Generated_Source\PSoC5/cyfitter_cfg.c **** CY_CFG_UNUSED
  77:Generated_Source\PSoC5/cyfitter_cfg.c **** static void CYMEMZERO(void *s, size_t n)
  78:Generated_Source\PSoC5/cyfitter_cfg.c **** {
  79:Generated_Source\PSoC5/cyfitter_cfg.c **** 	(void)memset(s, 0, n);
  80:Generated_Source\PSoC5/cyfitter_cfg.c **** }
  81:Generated_Source\PSoC5/cyfitter_cfg.c **** CY_CFG_UNUSED
  82:Generated_Source\PSoC5/cyfitter_cfg.c **** static void CYCONFIGCPY(void *dest, const void *src, size_t n);
  83:Generated_Source\PSoC5/cyfitter_cfg.c **** CY_CFG_UNUSED
  84:Generated_Source\PSoC5/cyfitter_cfg.c **** static void CYCONFIGCPY(void *dest, const void *src, size_t n)
  85:Generated_Source\PSoC5/cyfitter_cfg.c **** {
  86:Generated_Source\PSoC5/cyfitter_cfg.c **** 	(void)memcpy(dest, src, n);
  87:Generated_Source\PSoC5/cyfitter_cfg.c **** }
ARM GAS  C:\Users\valer\AppData\Local\Temp\ccNDDXY6.s 			page 3


  88:Generated_Source\PSoC5/cyfitter_cfg.c **** CY_CFG_UNUSED
  89:Generated_Source\PSoC5/cyfitter_cfg.c **** static void CYCONFIGCPYCODE(void *dest, const void *src, size_t n);
  90:Generated_Source\PSoC5/cyfitter_cfg.c **** CY_CFG_UNUSED
  91:Generated_Source\PSoC5/cyfitter_cfg.c **** static void CYCONFIGCPYCODE(void *dest, const void *src, size_t n)
  92:Generated_Source\PSoC5/cyfitter_cfg.c **** {
  93:Generated_Source\PSoC5/cyfitter_cfg.c **** 	(void)memcpy(dest, src, n);
  94:Generated_Source\PSoC5/cyfitter_cfg.c **** }
  95:Generated_Source\PSoC5/cyfitter_cfg.c **** 
  96:Generated_Source\PSoC5/cyfitter_cfg.c **** 
  97:Generated_Source\PSoC5/cyfitter_cfg.c **** 
  98:Generated_Source\PSoC5/cyfitter_cfg.c **** 
  99:Generated_Source\PSoC5/cyfitter_cfg.c **** /* Clock startup error codes                                                   */
 100:Generated_Source\PSoC5/cyfitter_cfg.c **** #define CYCLOCKSTART_NO_ERROR    0u
 101:Generated_Source\PSoC5/cyfitter_cfg.c **** #define CYCLOCKSTART_XTAL_ERROR  1u
 102:Generated_Source\PSoC5/cyfitter_cfg.c **** #define CYCLOCKSTART_32KHZ_ERROR 2u
 103:Generated_Source\PSoC5/cyfitter_cfg.c **** #define CYCLOCKSTART_PLL_ERROR   3u
 104:Generated_Source\PSoC5/cyfitter_cfg.c **** #define CYCLOCKSTART_FLL_ERROR   4u
 105:Generated_Source\PSoC5/cyfitter_cfg.c **** #define CYCLOCKSTART_WCO_ERROR   5u
 106:Generated_Source\PSoC5/cyfitter_cfg.c **** 
 107:Generated_Source\PSoC5/cyfitter_cfg.c **** 
 108:Generated_Source\PSoC5/cyfitter_cfg.c **** #ifdef CY_NEED_CYCLOCKSTARTUPERROR
 109:Generated_Source\PSoC5/cyfitter_cfg.c **** /*******************************************************************************
 110:Generated_Source\PSoC5/cyfitter_cfg.c **** * Function Name: CyClockStartupError
 111:Generated_Source\PSoC5/cyfitter_cfg.c **** ********************************************************************************
 112:Generated_Source\PSoC5/cyfitter_cfg.c **** * Summary:
 113:Generated_Source\PSoC5/cyfitter_cfg.c **** *  If an error is encountered during clock configuration (crystal startup error,
 114:Generated_Source\PSoC5/cyfitter_cfg.c **** *  PLL lock error, etc.), the system will end up here.  Unless reimplemented by
 115:Generated_Source\PSoC5/cyfitter_cfg.c **** *  the customer, this function will stop in an infinite loop.
 116:Generated_Source\PSoC5/cyfitter_cfg.c **** *
 117:Generated_Source\PSoC5/cyfitter_cfg.c **** * Parameters:
 118:Generated_Source\PSoC5/cyfitter_cfg.c **** *   void
 119:Generated_Source\PSoC5/cyfitter_cfg.c **** *
 120:Generated_Source\PSoC5/cyfitter_cfg.c **** * Return:
 121:Generated_Source\PSoC5/cyfitter_cfg.c **** *   void
 122:Generated_Source\PSoC5/cyfitter_cfg.c **** *
 123:Generated_Source\PSoC5/cyfitter_cfg.c **** *******************************************************************************/
 124:Generated_Source\PSoC5/cyfitter_cfg.c **** CY_CFG_UNUSED
 125:Generated_Source\PSoC5/cyfitter_cfg.c **** static void CyClockStartupError(uint8 errorCode);
 126:Generated_Source\PSoC5/cyfitter_cfg.c **** CY_CFG_UNUSED
 127:Generated_Source\PSoC5/cyfitter_cfg.c **** static void CyClockStartupError(uint8 errorCode)
 128:Generated_Source\PSoC5/cyfitter_cfg.c **** {
 129:Generated_Source\PSoC5/cyfitter_cfg.c ****     /* To remove the compiler warning if errorCode not used.                */
 130:Generated_Source\PSoC5/cyfitter_cfg.c ****     errorCode = errorCode;
 131:Generated_Source\PSoC5/cyfitter_cfg.c **** 
 132:Generated_Source\PSoC5/cyfitter_cfg.c ****     /* If we have a clock startup error (bad MHz crystal, PLL lock, etc.),  */
 133:Generated_Source\PSoC5/cyfitter_cfg.c ****     /* we will end up here to allow the customer to implement something to  */
 134:Generated_Source\PSoC5/cyfitter_cfg.c ****     /* deal with the clock condition.                                       */
 135:Generated_Source\PSoC5/cyfitter_cfg.c **** 
 136:Generated_Source\PSoC5/cyfitter_cfg.c **** #ifdef CY_CFG_CLOCK_STARTUP_ERROR_CALLBACK
 137:Generated_Source\PSoC5/cyfitter_cfg.c ****     CY_CFG_Clock_Startup_ErrorCallback();
 138:Generated_Source\PSoC5/cyfitter_cfg.c **** #else
 139:Generated_Source\PSoC5/cyfitter_cfg.c ****     /*  If not using CY_CFG_CLOCK_STARTUP_ERROR_CALLBACK, place your clock startup code here. */
 140:Generated_Source\PSoC5/cyfitter_cfg.c ****     /* `#START CyClockStartupError` */
 141:Generated_Source\PSoC5/cyfitter_cfg.c **** 
 142:Generated_Source\PSoC5/cyfitter_cfg.c **** 
 143:Generated_Source\PSoC5/cyfitter_cfg.c **** 
 144:Generated_Source\PSoC5/cyfitter_cfg.c ****     /* `#END` */
ARM GAS  C:\Users\valer\AppData\Local\Temp\ccNDDXY6.s 			page 4


 145:Generated_Source\PSoC5/cyfitter_cfg.c **** 
 146:Generated_Source\PSoC5/cyfitter_cfg.c ****     while(1) {}
 147:Generated_Source\PSoC5/cyfitter_cfg.c **** #endif /* CY_CFG_CLOCK_STARTUP_ERROR_CALLBACK */
 148:Generated_Source\PSoC5/cyfitter_cfg.c **** }
 149:Generated_Source\PSoC5/cyfitter_cfg.c **** #endif
 150:Generated_Source\PSoC5/cyfitter_cfg.c **** 
 151:Generated_Source\PSoC5/cyfitter_cfg.c **** #define CY_CFG_BASE_ADDR_COUNT 23u
 152:Generated_Source\PSoC5/cyfitter_cfg.c **** CYPACKED typedef struct
 153:Generated_Source\PSoC5/cyfitter_cfg.c **** {
 154:Generated_Source\PSoC5/cyfitter_cfg.c **** 	uint8 offset;
 155:Generated_Source\PSoC5/cyfitter_cfg.c **** 	uint8 value;
 156:Generated_Source\PSoC5/cyfitter_cfg.c **** } CYPACKED_ATTR cy_cfg_addrvalue_t;
 157:Generated_Source\PSoC5/cyfitter_cfg.c **** 
 158:Generated_Source\PSoC5/cyfitter_cfg.c **** #define cy_cfg_addr_table ((const uint32 CYFAR *)0x48000000u)
 159:Generated_Source\PSoC5/cyfitter_cfg.c **** #define cy_cfg_data_table ((const cy_cfg_addrvalue_t CYFAR *)0x4800005Cu)
 160:Generated_Source\PSoC5/cyfitter_cfg.c **** 
 161:Generated_Source\PSoC5/cyfitter_cfg.c **** /* UDB_0_1_1_CONFIG Address: CYDEV_UCFG_B1_P4_U0_BASE Size (bytes): 128 */
 162:Generated_Source\PSoC5/cyfitter_cfg.c **** #define BS_UDB_0_1_1_CONFIG_VAL ((const uint8 CYFAR *)0x480002D8u)
 163:Generated_Source\PSoC5/cyfitter_cfg.c **** 
 164:Generated_Source\PSoC5/cyfitter_cfg.c **** /* IOPINS0_0 Address: CYREG_PRT0_DM0 Size (bytes): 8 */
 165:Generated_Source\PSoC5/cyfitter_cfg.c **** #define BS_IOPINS0_0_VAL ((const uint8 CYFAR *)0x48000358u)
 166:Generated_Source\PSoC5/cyfitter_cfg.c **** 
 167:Generated_Source\PSoC5/cyfitter_cfg.c **** /* IOPINS0_7 Address: CYREG_PRT12_DR Size (bytes): 10 */
 168:Generated_Source\PSoC5/cyfitter_cfg.c **** #define BS_IOPINS0_7_VAL ((const uint8 CYFAR *)0x48000360u)
 169:Generated_Source\PSoC5/cyfitter_cfg.c **** 
 170:Generated_Source\PSoC5/cyfitter_cfg.c **** /* IOPINS0_1 Address: CYREG_PRT1_DM0 Size (bytes): 8 */
 171:Generated_Source\PSoC5/cyfitter_cfg.c **** #define BS_IOPINS0_1_VAL ((const uint8 CYFAR *)0x4800036Cu)
 172:Generated_Source\PSoC5/cyfitter_cfg.c **** 
 173:Generated_Source\PSoC5/cyfitter_cfg.c **** /* IOPINS0_3 Address: CYREG_PRT3_DM0 Size (bytes): 8 */
 174:Generated_Source\PSoC5/cyfitter_cfg.c **** #define BS_IOPINS0_3_VAL ((const uint8 CYFAR *)0x48000374u)
 175:Generated_Source\PSoC5/cyfitter_cfg.c **** 
 176:Generated_Source\PSoC5/cyfitter_cfg.c **** /* CYDEV_CLKDIST_ACFG0_CFG0 Address: CYREG_CLKDIST_ACFG0_CFG0 Size (bytes): 4 */
 177:Generated_Source\PSoC5/cyfitter_cfg.c **** #define BS_CYDEV_CLKDIST_ACFG0_CFG0_VAL ((const uint8 CYFAR *)0x4800037Cu)
 178:Generated_Source\PSoC5/cyfitter_cfg.c **** 
 179:Generated_Source\PSoC5/cyfitter_cfg.c **** 
 180:Generated_Source\PSoC5/cyfitter_cfg.c **** /*******************************************************************************
 181:Generated_Source\PSoC5/cyfitter_cfg.c **** * Function Name: cfg_write_bytes32
 182:Generated_Source\PSoC5/cyfitter_cfg.c **** ********************************************************************************
 183:Generated_Source\PSoC5/cyfitter_cfg.c **** * Summary:
 184:Generated_Source\PSoC5/cyfitter_cfg.c **** *  This function is used for setting up the chip configuration areas that
 185:Generated_Source\PSoC5/cyfitter_cfg.c **** *  contain relatively sparse data.
 186:Generated_Source\PSoC5/cyfitter_cfg.c **** *
 187:Generated_Source\PSoC5/cyfitter_cfg.c **** * Parameters:
 188:Generated_Source\PSoC5/cyfitter_cfg.c **** *   void
 189:Generated_Source\PSoC5/cyfitter_cfg.c **** *
 190:Generated_Source\PSoC5/cyfitter_cfg.c **** * Return:
 191:Generated_Source\PSoC5/cyfitter_cfg.c **** *   void
 192:Generated_Source\PSoC5/cyfitter_cfg.c **** *
 193:Generated_Source\PSoC5/cyfitter_cfg.c **** *******************************************************************************/
 194:Generated_Source\PSoC5/cyfitter_cfg.c **** static void cfg_write_bytes32(const uint32 addr_table[], const cy_cfg_addrvalue_t data_table[]);
 195:Generated_Source\PSoC5/cyfitter_cfg.c **** static void cfg_write_bytes32(const uint32 addr_table[], const cy_cfg_addrvalue_t data_table[])
 196:Generated_Source\PSoC5/cyfitter_cfg.c **** {
 197:Generated_Source\PSoC5/cyfitter_cfg.c **** 	/* For 32-bit little-endian architectures */
 198:Generated_Source\PSoC5/cyfitter_cfg.c **** 	uint32 i, j = 0u;
 199:Generated_Source\PSoC5/cyfitter_cfg.c **** 	for (i = 0u; i < CY_CFG_BASE_ADDR_COUNT; i++)
 200:Generated_Source\PSoC5/cyfitter_cfg.c **** 	{
 201:Generated_Source\PSoC5/cyfitter_cfg.c **** 		uint32 baseAddr = addr_table[i];
ARM GAS  C:\Users\valer\AppData\Local\Temp\ccNDDXY6.s 			page 5


 202:Generated_Source\PSoC5/cyfitter_cfg.c **** 		uint8 count = (uint8)baseAddr;
 203:Generated_Source\PSoC5/cyfitter_cfg.c **** 		baseAddr &= 0xFFFFFF00u;
 204:Generated_Source\PSoC5/cyfitter_cfg.c **** 		while (count != 0u)
 205:Generated_Source\PSoC5/cyfitter_cfg.c **** 		{
 206:Generated_Source\PSoC5/cyfitter_cfg.c **** 			CY_SET_REG8((void *)(baseAddr + data_table[j].offset), data_table[j].value);
 207:Generated_Source\PSoC5/cyfitter_cfg.c **** 			j++;
 208:Generated_Source\PSoC5/cyfitter_cfg.c **** 			count--;
 209:Generated_Source\PSoC5/cyfitter_cfg.c **** 		}
 210:Generated_Source\PSoC5/cyfitter_cfg.c **** 	}
 211:Generated_Source\PSoC5/cyfitter_cfg.c **** }
 212:Generated_Source\PSoC5/cyfitter_cfg.c **** 
 213:Generated_Source\PSoC5/cyfitter_cfg.c **** /*******************************************************************************
 214:Generated_Source\PSoC5/cyfitter_cfg.c **** * Function Name: ClockSetup
 215:Generated_Source\PSoC5/cyfitter_cfg.c **** ********************************************************************************
 216:Generated_Source\PSoC5/cyfitter_cfg.c **** *
 217:Generated_Source\PSoC5/cyfitter_cfg.c **** * Summary:
 218:Generated_Source\PSoC5/cyfitter_cfg.c **** *  Performs the initialization of all of the clocks in the device based on the
 219:Generated_Source\PSoC5/cyfitter_cfg.c **** *  settings in the Clock tab of the DWR.  This includes enabling the requested
 220:Generated_Source\PSoC5/cyfitter_cfg.c **** *  clocks and setting the necessary dividers to produce the desired frequency. 
 221:Generated_Source\PSoC5/cyfitter_cfg.c **** *
 222:Generated_Source\PSoC5/cyfitter_cfg.c **** * Parameters:
 223:Generated_Source\PSoC5/cyfitter_cfg.c **** *  void
 224:Generated_Source\PSoC5/cyfitter_cfg.c **** *
 225:Generated_Source\PSoC5/cyfitter_cfg.c **** * Return:
 226:Generated_Source\PSoC5/cyfitter_cfg.c **** *  void
 227:Generated_Source\PSoC5/cyfitter_cfg.c **** *
 228:Generated_Source\PSoC5/cyfitter_cfg.c **** *******************************************************************************/
 229:Generated_Source\PSoC5/cyfitter_cfg.c **** static void ClockSetup(void);
 230:Generated_Source\PSoC5/cyfitter_cfg.c **** static void ClockSetup(void)
 231:Generated_Source\PSoC5/cyfitter_cfg.c **** {
 232:Generated_Source\PSoC5/cyfitter_cfg.c **** 	uint32 timeout;
 233:Generated_Source\PSoC5/cyfitter_cfg.c **** 	uint8 pllLock;
 234:Generated_Source\PSoC5/cyfitter_cfg.c **** 
 235:Generated_Source\PSoC5/cyfitter_cfg.c **** 
 236:Generated_Source\PSoC5/cyfitter_cfg.c **** 	/* Configure Digital Clocks based on settings from Clock DWR */
 237:Generated_Source\PSoC5/cyfitter_cfg.c **** 	CY_SET_XTND_REG16((void CYFAR *)(CYREG_CLKDIST_DCFG0_CFG0), 0x0138u);
 238:Generated_Source\PSoC5/cyfitter_cfg.c **** 	CY_SET_XTND_REG8((void CYFAR *)(CYREG_CLKDIST_DCFG0_CFG0 + 0x2u), 0x18u);
 239:Generated_Source\PSoC5/cyfitter_cfg.c **** 
 240:Generated_Source\PSoC5/cyfitter_cfg.c **** 	/* Configure Analog Clocks based on settings from Clock DWR */
 241:Generated_Source\PSoC5/cyfitter_cfg.c **** 	CYCONFIGCPY((void CYFAR *)(CYREG_CLKDIST_ACFG0_CFG0), (const void CYFAR *)(BS_CYDEV_CLKDIST_ACFG0_
 242:Generated_Source\PSoC5/cyfitter_cfg.c **** 
 243:Generated_Source\PSoC5/cyfitter_cfg.c **** 	/* Configure ILO based on settings from Clock DWR */
 244:Generated_Source\PSoC5/cyfitter_cfg.c **** 	CY_SET_XTND_REG8((void CYFAR *)(CYREG_SLOWCLK_ILO_CR0), 0x02u);
 245:Generated_Source\PSoC5/cyfitter_cfg.c **** 	CY_SET_XTND_REG8((void CYFAR *)(CYREG_CLKDIST_CR), 0x08u);
 246:Generated_Source\PSoC5/cyfitter_cfg.c **** 
 247:Generated_Source\PSoC5/cyfitter_cfg.c **** 	/* Configure IMO based on settings from Clock DWR */
 248:Generated_Source\PSoC5/cyfitter_cfg.c **** 	CY_SET_XTND_REG8((void CYFAR *)(CYREG_FASTCLK_IMO_CR), 0x03u);
 249:Generated_Source\PSoC5/cyfitter_cfg.c **** 	CY_SET_XTND_REG8((void CYFAR *)(CYREG_IMO_TR1), (CY_GET_XTND_REG8((void CYFAR *)CYREG_FLSHID_CUST_
 250:Generated_Source\PSoC5/cyfitter_cfg.c **** 
 251:Generated_Source\PSoC5/cyfitter_cfg.c **** 	/* Configure PLL based on settings from Clock DWR */
 252:Generated_Source\PSoC5/cyfitter_cfg.c **** 	CY_SET_XTND_REG16((void CYFAR *)(CYREG_FASTCLK_PLL_P), 0x0008u);
 253:Generated_Source\PSoC5/cyfitter_cfg.c **** 	CY_SET_XTND_REG16((void CYFAR *)(CYREG_FASTCLK_PLL_CFG0), 0x1251u);
 254:Generated_Source\PSoC5/cyfitter_cfg.c **** 	/* Wait up to 250us for the PLL to lock */
 255:Generated_Source\PSoC5/cyfitter_cfg.c **** 	pllLock = 0u;
 256:Generated_Source\PSoC5/cyfitter_cfg.c **** 	for (timeout = 250u / 10u; (timeout > 0u) && (pllLock != 0x03u); timeout--)
 257:Generated_Source\PSoC5/cyfitter_cfg.c **** 	{ 
 258:Generated_Source\PSoC5/cyfitter_cfg.c **** 		pllLock = 0x03u & ((uint8)((uint8)pllLock << 1) | ((CY_GET_XTND_REG8((void CYFAR *)CYREG_FASTCLK_
ARM GAS  C:\Users\valer\AppData\Local\Temp\ccNDDXY6.s 			page 6


 259:Generated_Source\PSoC5/cyfitter_cfg.c **** 		CyDelayCycles(10u * 48u); /* Delay 10us based on 48MHz clock */
 260:Generated_Source\PSoC5/cyfitter_cfg.c **** 	}
 261:Generated_Source\PSoC5/cyfitter_cfg.c **** 	/* If we ran out of time the PLL didn't lock so go to the error function */
 262:Generated_Source\PSoC5/cyfitter_cfg.c **** 	if (timeout == 0u)
 263:Generated_Source\PSoC5/cyfitter_cfg.c **** 	{
 264:Generated_Source\PSoC5/cyfitter_cfg.c **** 		CyClockStartupError(CYCLOCKSTART_PLL_ERROR);
 265:Generated_Source\PSoC5/cyfitter_cfg.c **** 	}
 266:Generated_Source\PSoC5/cyfitter_cfg.c **** 
 267:Generated_Source\PSoC5/cyfitter_cfg.c **** 	/* Configure Bus/Master Clock based on settings from Clock DWR */
 268:Generated_Source\PSoC5/cyfitter_cfg.c **** 	CY_SET_XTND_REG16((void CYFAR *)(CYREG_CLKDIST_MSTR0), 0x0100u);
 269:Generated_Source\PSoC5/cyfitter_cfg.c **** 	CY_SET_XTND_REG8((void CYFAR *)(CYREG_CLKDIST_MSTR0), 0x07u);
 270:Generated_Source\PSoC5/cyfitter_cfg.c **** 	CY_SET_XTND_REG8((void CYFAR *)(CYREG_CLKDIST_BCFG0), 0x00u);
 271:Generated_Source\PSoC5/cyfitter_cfg.c **** 	CY_SET_XTND_REG8((void CYFAR *)(CYREG_CLKDIST_BCFG2), 0x48u);
 272:Generated_Source\PSoC5/cyfitter_cfg.c **** 	CY_SET_XTND_REG8((void CYFAR *)(CYREG_CLKDIST_MSTR0), 0x00u);
 273:Generated_Source\PSoC5/cyfitter_cfg.c **** 	CY_SET_XTND_REG8((void CYFAR *)(CYREG_CLKDIST_LD), 0x02u);
 274:Generated_Source\PSoC5/cyfitter_cfg.c **** 	CY_SET_XTND_REG8((void CYFAR *)(CYREG_CLKDIST_DLY1), 0x04u);
 275:Generated_Source\PSoC5/cyfitter_cfg.c **** 
 276:Generated_Source\PSoC5/cyfitter_cfg.c **** 	CY_SET_XTND_REG8((void CYFAR *)(CYREG_PM_ACT_CFG2), ((CY_GET_XTND_REG8((void CYFAR *)CYREG_PM_ACT_
 277:Generated_Source\PSoC5/cyfitter_cfg.c **** 	CY_SET_XTND_REG8((void CYFAR *)(CYREG_PM_ACT_CFG1), ((CY_GET_XTND_REG8((void CYFAR *)CYREG_PM_ACT_
 278:Generated_Source\PSoC5/cyfitter_cfg.c **** 	CY_SET_XTND_REG8((void CYFAR *)(CYREG_PM_ACT_CFG0), ((CY_GET_XTND_REG8((void CYFAR *)CYREG_PM_ACT_
 279:Generated_Source\PSoC5/cyfitter_cfg.c **** }
 280:Generated_Source\PSoC5/cyfitter_cfg.c **** 
 281:Generated_Source\PSoC5/cyfitter_cfg.c **** 
 282:Generated_Source\PSoC5/cyfitter_cfg.c **** /* Analog API Functions */
 283:Generated_Source\PSoC5/cyfitter_cfg.c **** 
 284:Generated_Source\PSoC5/cyfitter_cfg.c **** 
 285:Generated_Source\PSoC5/cyfitter_cfg.c **** /*******************************************************************************
 286:Generated_Source\PSoC5/cyfitter_cfg.c **** * Function Name: AnalogSetDefault
 287:Generated_Source\PSoC5/cyfitter_cfg.c **** ********************************************************************************
 288:Generated_Source\PSoC5/cyfitter_cfg.c **** *
 289:Generated_Source\PSoC5/cyfitter_cfg.c **** * Summary:
 290:Generated_Source\PSoC5/cyfitter_cfg.c **** *  Sets up the analog portions of the chip to default values based on chip
 291:Generated_Source\PSoC5/cyfitter_cfg.c **** *  configuration options from the project.
 292:Generated_Source\PSoC5/cyfitter_cfg.c **** *
 293:Generated_Source\PSoC5/cyfitter_cfg.c **** * Parameters:
 294:Generated_Source\PSoC5/cyfitter_cfg.c **** *  void
 295:Generated_Source\PSoC5/cyfitter_cfg.c **** *
 296:Generated_Source\PSoC5/cyfitter_cfg.c **** * Return:
 297:Generated_Source\PSoC5/cyfitter_cfg.c **** *  void
 298:Generated_Source\PSoC5/cyfitter_cfg.c **** *
 299:Generated_Source\PSoC5/cyfitter_cfg.c **** *******************************************************************************/
 300:Generated_Source\PSoC5/cyfitter_cfg.c **** static void AnalogSetDefault(void);
 301:Generated_Source\PSoC5/cyfitter_cfg.c **** static void AnalogSetDefault(void)
 302:Generated_Source\PSoC5/cyfitter_cfg.c **** {
 303:Generated_Source\PSoC5/cyfitter_cfg.c **** 	uint8 bg_xover_inl_trim = CY_GET_XTND_REG8((void CYFAR *)(CYREG_FLSHID_MFG_CFG_BG_XOVER_INL_TRIM +
 304:Generated_Source\PSoC5/cyfitter_cfg.c **** 	uint8 cr4 = CY_GET_XTND_REG8((void CYFAR *)(CYREG_RESET_CR4));
 305:Generated_Source\PSoC5/cyfitter_cfg.c **** 	uint8 cr5 = CY_GET_XTND_REG8((void CYFAR *)(CYREG_RESET_CR5));
 306:Generated_Source\PSoC5/cyfitter_cfg.c **** 	CY_SET_XTND_REG8((void CYFAR *)(CYREG_BG_DFT0), (bg_xover_inl_trim & 0x07u));
 307:Generated_Source\PSoC5/cyfitter_cfg.c **** 	CY_SET_XTND_REG8((void CYFAR *)(CYREG_BG_DFT1), ((bg_xover_inl_trim >> 4) & 0x0Fu));
 308:Generated_Source\PSoC5/cyfitter_cfg.c **** 	/* Disable PRES while setting up SAR voltage reference */
 309:Generated_Source\PSoC5/cyfitter_cfg.c **** 	CY_SET_XTND_REG8((void CYFAR *)(CYREG_RESET_CR4), (cr4 | 0x03u));
 310:Generated_Source\PSoC5/cyfitter_cfg.c **** 	CY_SET_XTND_REG8((void CYFAR *)(CYREG_RESET_CR5), (cr5 | 0x03u));
 311:Generated_Source\PSoC5/cyfitter_cfg.c **** 	CY_SET_XTND_REG8((void CYFAR *)CYREG_SAR0_CSR1, 0x80u);
 312:Generated_Source\PSoC5/cyfitter_cfg.c **** 	CY_SET_XTND_REG8((void CYFAR *)CYREG_SAR0_SW3, 0x20u);
 313:Generated_Source\PSoC5/cyfitter_cfg.c **** 	CY_SET_XTND_REG8((void CYFAR *)CYREG_BUS_SW0, 0x40u);
 314:Generated_Source\PSoC5/cyfitter_cfg.c **** 	CyDelayUs(10u); /* Allow vref to settle before re-enabling PRES */
 315:Generated_Source\PSoC5/cyfitter_cfg.c **** 	CY_SET_XTND_REG8((void CYFAR *)(CYREG_RESET_CR5), (cr5));
ARM GAS  C:\Users\valer\AppData\Local\Temp\ccNDDXY6.s 			page 7


 316:Generated_Source\PSoC5/cyfitter_cfg.c **** 	CY_SET_XTND_REG8((void CYFAR *)(CYREG_RESET_CR4), (cr4));
 317:Generated_Source\PSoC5/cyfitter_cfg.c **** 	CY_SET_XTND_REG8((void CYFAR *)CYREG_PUMP_CR0, 0x44u);
 318:Generated_Source\PSoC5/cyfitter_cfg.c **** }
 319:Generated_Source\PSoC5/cyfitter_cfg.c **** 
 320:Generated_Source\PSoC5/cyfitter_cfg.c **** 
 321:Generated_Source\PSoC5/cyfitter_cfg.c **** /*******************************************************************************
 322:Generated_Source\PSoC5/cyfitter_cfg.c **** * Function Name: SetAnalogRoutingPumps
 323:Generated_Source\PSoC5/cyfitter_cfg.c **** ********************************************************************************
 324:Generated_Source\PSoC5/cyfitter_cfg.c **** *
 325:Generated_Source\PSoC5/cyfitter_cfg.c **** * Summary:
 326:Generated_Source\PSoC5/cyfitter_cfg.c **** * Enables or disables the analog pumps feeding analog routing switches.
 327:Generated_Source\PSoC5/cyfitter_cfg.c **** * Intended to be called at startup, based on the Vdda system configuration;
 328:Generated_Source\PSoC5/cyfitter_cfg.c **** * may be called during operation when the user informs us that the Vdda voltage
 329:Generated_Source\PSoC5/cyfitter_cfg.c **** * crossed the pump threshold.
 330:Generated_Source\PSoC5/cyfitter_cfg.c **** *
 331:Generated_Source\PSoC5/cyfitter_cfg.c **** * Parameters:
 332:Generated_Source\PSoC5/cyfitter_cfg.c **** *  enabled - 1 to enable the pumps, 0 to disable the pumps
 333:Generated_Source\PSoC5/cyfitter_cfg.c **** *
 334:Generated_Source\PSoC5/cyfitter_cfg.c **** * Return:
 335:Generated_Source\PSoC5/cyfitter_cfg.c **** *  void
 336:Generated_Source\PSoC5/cyfitter_cfg.c **** *
 337:Generated_Source\PSoC5/cyfitter_cfg.c **** *******************************************************************************/
 338:Generated_Source\PSoC5/cyfitter_cfg.c **** void SetAnalogRoutingPumps(uint8 enabled)
 339:Generated_Source\PSoC5/cyfitter_cfg.c **** {
  28              		.loc 1 339 0
  29              		.cfi_startproc
  30              		@ args = 0, pretend = 0, frame = 0
  31              		@ frame_needed = 0, uses_anonymous_args = 0
  32              		@ link register save eliminated.
  33              	.LVL0:
 340:Generated_Source\PSoC5/cyfitter_cfg.c **** 	uint8 regValue = CY_GET_XTND_REG8((void CYFAR *)CYREG_PUMP_CR0);
  34              		.loc 1 340 0
  35 0000 054A     		ldr	r2, .L5
  36 0002 1378     		ldrb	r3, [r2]	@ zero_extendqisi2
  37 0004 DBB2     		uxtb	r3, r3
  38              	.LVL1:
 341:Generated_Source\PSoC5/cyfitter_cfg.c **** 	if (enabled != 0u)
  39              		.loc 1 341 0
  40 0006 10B1     		cbz	r0, .L2
 342:Generated_Source\PSoC5/cyfitter_cfg.c **** 	{
 343:Generated_Source\PSoC5/cyfitter_cfg.c **** 		regValue |= 0x22u;
  41              		.loc 1 343 0
  42 0008 43F02203 		orr	r3, r3, #34
  43              	.LVL2:
  44 000c 01E0     		b	.L3
  45              	.L2:
 344:Generated_Source\PSoC5/cyfitter_cfg.c **** 	}
 345:Generated_Source\PSoC5/cyfitter_cfg.c **** 	else
 346:Generated_Source\PSoC5/cyfitter_cfg.c **** 	{
 347:Generated_Source\PSoC5/cyfitter_cfg.c **** 		regValue &= (uint8)~0x22u;
  46              		.loc 1 347 0
  47 000e 03F0DD03 		and	r3, r3, #221
  48              	.LVL3:
  49              	.L3:
 348:Generated_Source\PSoC5/cyfitter_cfg.c **** 	}
 349:Generated_Source\PSoC5/cyfitter_cfg.c **** 	CY_SET_XTND_REG8((void CYFAR *)CYREG_PUMP_CR0, regValue);
  50              		.loc 1 349 0
ARM GAS  C:\Users\valer\AppData\Local\Temp\ccNDDXY6.s 			page 8


  51 0012 1370     		strb	r3, [r2]
  52 0014 7047     		bx	lr
  53              	.L6:
  54 0016 00BF     		.align	2
  55              	.L5:
  56 0018 76580040 		.word	1073764470
  57              		.cfi_endproc
  58              	.LFE7:
  59              		.size	SetAnalogRoutingPumps, .-SetAnalogRoutingPumps
  60              		.section	.text.Pot_Values_Set,"ax",%progbits
  61              		.align	1
  62              		.global	Pot_Values_Set
  63              		.thumb
  64              		.thumb_func
  65              		.type	Pot_Values_Set, %function
  66              	Pot_Values_Set:
  67              	.LFB8:
 350:Generated_Source\PSoC5/cyfitter_cfg.c **** }
 351:Generated_Source\PSoC5/cyfitter_cfg.c **** 
 352:Generated_Source\PSoC5/cyfitter_cfg.c **** 
 353:Generated_Source\PSoC5/cyfitter_cfg.c **** #define CY_AMUX_UNUSED CYREG_BOOST_SR
 354:Generated_Source\PSoC5/cyfitter_cfg.c **** /* This is an implementation detail of the AMux. Code that depends on it may be
 355:Generated_Source\PSoC5/cyfitter_cfg.c ****    incompatible with other versions of PSoC Creator. */
 356:Generated_Source\PSoC5/cyfitter_cfg.c **** uint8 CYXDATA * const CYCODE Pot_Values__addrTable[6] = {
 357:Generated_Source\PSoC5/cyfitter_cfg.c **** 	(uint8 CYXDATA *)CYREG_PRT0_AG, (uint8 CYXDATA *)CYREG_SAR0_SW0, 
 358:Generated_Source\PSoC5/cyfitter_cfg.c **** 	(uint8 CYXDATA *)CYREG_PRT0_AG, (uint8 CYXDATA *)CYREG_SAR0_SW0, 
 359:Generated_Source\PSoC5/cyfitter_cfg.c **** 	(uint8 CYXDATA *)CYREG_PRT3_AG, (uint8 CYXDATA *)CYREG_SAR0_SW0, 
 360:Generated_Source\PSoC5/cyfitter_cfg.c **** };
 361:Generated_Source\PSoC5/cyfitter_cfg.c **** 
 362:Generated_Source\PSoC5/cyfitter_cfg.c **** /* This is an implementation detail of the AMux. Code that depends on it may be
 363:Generated_Source\PSoC5/cyfitter_cfg.c ****    incompatible with other versions of PSoC Creator. */
 364:Generated_Source\PSoC5/cyfitter_cfg.c **** const uint8 CYCODE Pot_Values__maskTable[6] = {
 365:Generated_Source\PSoC5/cyfitter_cfg.c **** 	0x01u, 0x10u, 
 366:Generated_Source\PSoC5/cyfitter_cfg.c **** 	0x02u, 0x20u, 
 367:Generated_Source\PSoC5/cyfitter_cfg.c **** 	0x40u, 0x40u, 
 368:Generated_Source\PSoC5/cyfitter_cfg.c **** };
 369:Generated_Source\PSoC5/cyfitter_cfg.c **** 
 370:Generated_Source\PSoC5/cyfitter_cfg.c **** /*******************************************************************************
 371:Generated_Source\PSoC5/cyfitter_cfg.c **** * Function Name: Pot_Values_Set
 372:Generated_Source\PSoC5/cyfitter_cfg.c **** ********************************************************************************
 373:Generated_Source\PSoC5/cyfitter_cfg.c **** * Summary:
 374:Generated_Source\PSoC5/cyfitter_cfg.c **** *  This function is used to set a particular channel as active on the AMux.
 375:Generated_Source\PSoC5/cyfitter_cfg.c **** *
 376:Generated_Source\PSoC5/cyfitter_cfg.c **** * Parameters:  
 377:Generated_Source\PSoC5/cyfitter_cfg.c **** *   channel - The mux channel input to set as active
 378:Generated_Source\PSoC5/cyfitter_cfg.c **** *
 379:Generated_Source\PSoC5/cyfitter_cfg.c **** * Return:
 380:Generated_Source\PSoC5/cyfitter_cfg.c **** *   void
 381:Generated_Source\PSoC5/cyfitter_cfg.c **** *
 382:Generated_Source\PSoC5/cyfitter_cfg.c **** *******************************************************************************/
 383:Generated_Source\PSoC5/cyfitter_cfg.c **** void Pot_Values_Set(uint8 channel)
 384:Generated_Source\PSoC5/cyfitter_cfg.c **** {
  68              		.loc 1 384 0
  69              		.cfi_startproc
  70              		@ args = 0, pretend = 0, frame = 0
  71              		@ frame_needed = 0, uses_anonymous_args = 0
  72              	.LVL4:
ARM GAS  C:\Users\valer\AppData\Local\Temp\ccNDDXY6.s 			page 9


 385:Generated_Source\PSoC5/cyfitter_cfg.c **** 	if (channel < 3)
  73              		.loc 1 385 0
  74 0000 0228     		cmp	r0, #2
 384:Generated_Source\PSoC5/cyfitter_cfg.c **** 	if (channel < 3)
  75              		.loc 1 384 0
  76 0002 10B5     		push	{r4, lr}
  77              		.cfi_def_cfa_offset 8
  78              		.cfi_offset 4, -8
  79              		.cfi_offset 14, -4
  80              		.loc 1 385 0
  81 0004 12D8     		bhi	.L7
 386:Generated_Source\PSoC5/cyfitter_cfg.c **** 	{
 387:Generated_Source\PSoC5/cyfitter_cfg.c **** 		channel += channel;
 388:Generated_Source\PSoC5/cyfitter_cfg.c **** 		*Pot_Values__addrTable[channel] |= Pot_Values__maskTable[channel];
  82              		.loc 1 388 0
  83 0006 0A4A     		ldr	r2, .L9
 387:Generated_Source\PSoC5/cyfitter_cfg.c **** 		*Pot_Values__addrTable[channel] |= Pot_Values__maskTable[channel];
  84              		.loc 1 387 0
  85 0008 4000     		lsls	r0, r0, #1
  86              	.LVL5:
  87 000a C0B2     		uxtb	r0, r0
  88              	.LVL6:
  89              		.loc 1 388 0
  90 000c 52F82010 		ldr	r1, [r2, r0, lsl #2]
  91 0010 1318     		adds	r3, r2, r0
  92 0012 0C78     		ldrb	r4, [r1]	@ zero_extendqisi2
  93 0014 1B7E     		ldrb	r3, [r3, #24]	@ zero_extendqisi2
  94 0016 2343     		orrs	r3, r3, r4
  95 0018 0B70     		strb	r3, [r1]
  96              	.LVL7:
 389:Generated_Source\PSoC5/cyfitter_cfg.c **** 		channel++;
 390:Generated_Source\PSoC5/cyfitter_cfg.c **** 		*Pot_Values__addrTable[channel] |= Pot_Values__maskTable[channel];
  97              		.loc 1 390 0
  98 001a 431C     		adds	r3, r0, #1
  99 001c D8B2     		uxtb	r0, r3
 100              	.LVL8:
 101 001e 52F82010 		ldr	r1, [r2, r0, lsl #2]
 102 0022 1044     		add	r0, r0, r2
 103 0024 037E     		ldrb	r3, [r0, #24]	@ zero_extendqisi2
 104              	.LVL9:
 105 0026 0A78     		ldrb	r2, [r1]	@ zero_extendqisi2
 106 0028 1343     		orrs	r3, r3, r2
 107 002a 0B70     		strb	r3, [r1]
 108              	.L7:
 109 002c 10BD     		pop	{r4, pc}
 110              	.L10:
 111 002e 00BF     		.align	2
 112              	.L9:
 113 0030 00000000 		.word	.LANCHOR0
 114              		.cfi_endproc
 115              	.LFE8:
 116              		.size	Pot_Values_Set, .-Pot_Values_Set
 117              		.section	.text.Pot_Values_Unset,"ax",%progbits
 118              		.align	1
 119              		.global	Pot_Values_Unset
 120              		.thumb
 121              		.thumb_func
ARM GAS  C:\Users\valer\AppData\Local\Temp\ccNDDXY6.s 			page 10


 122              		.type	Pot_Values_Unset, %function
 123              	Pot_Values_Unset:
 124              	.LFB9:
 391:Generated_Source\PSoC5/cyfitter_cfg.c **** 	}
 392:Generated_Source\PSoC5/cyfitter_cfg.c **** }
 393:Generated_Source\PSoC5/cyfitter_cfg.c **** 
 394:Generated_Source\PSoC5/cyfitter_cfg.c **** /*******************************************************************************
 395:Generated_Source\PSoC5/cyfitter_cfg.c **** * Function Name: Pot_Values_Unset
 396:Generated_Source\PSoC5/cyfitter_cfg.c **** ********************************************************************************
 397:Generated_Source\PSoC5/cyfitter_cfg.c **** * Summary:
 398:Generated_Source\PSoC5/cyfitter_cfg.c **** *  This function is used to clear a particular channel from being active on the
 399:Generated_Source\PSoC5/cyfitter_cfg.c **** *  AMux.
 400:Generated_Source\PSoC5/cyfitter_cfg.c **** *
 401:Generated_Source\PSoC5/cyfitter_cfg.c **** * Parameters:  
 402:Generated_Source\PSoC5/cyfitter_cfg.c **** *   channel - The mux channel input to mark inactive
 403:Generated_Source\PSoC5/cyfitter_cfg.c **** *
 404:Generated_Source\PSoC5/cyfitter_cfg.c **** * Return:
 405:Generated_Source\PSoC5/cyfitter_cfg.c **** *   void
 406:Generated_Source\PSoC5/cyfitter_cfg.c **** *
 407:Generated_Source\PSoC5/cyfitter_cfg.c **** *******************************************************************************/
 408:Generated_Source\PSoC5/cyfitter_cfg.c **** void Pot_Values_Unset(uint8 channel)
 409:Generated_Source\PSoC5/cyfitter_cfg.c **** {
 125              		.loc 1 409 0
 126              		.cfi_startproc
 127              		@ args = 0, pretend = 0, frame = 0
 128              		@ frame_needed = 0, uses_anonymous_args = 0
 129              	.LVL10:
 410:Generated_Source\PSoC5/cyfitter_cfg.c **** 	if (channel < 3)
 130              		.loc 1 410 0
 131 0000 0228     		cmp	r0, #2
 409:Generated_Source\PSoC5/cyfitter_cfg.c **** 	if (channel < 3)
 132              		.loc 1 409 0
 133 0002 10B5     		push	{r4, lr}
 134              		.cfi_def_cfa_offset 8
 135              		.cfi_offset 4, -8
 136              		.cfi_offset 14, -4
 137              		.loc 1 410 0
 138 0004 14D8     		bhi	.L11
 411:Generated_Source\PSoC5/cyfitter_cfg.c **** 	{
 412:Generated_Source\PSoC5/cyfitter_cfg.c **** 		channel += channel;
 413:Generated_Source\PSoC5/cyfitter_cfg.c **** 		*Pot_Values__addrTable[channel] &= (uint8)~Pot_Values__maskTable[channel];
 139              		.loc 1 413 0
 140 0006 0B4A     		ldr	r2, .L13
 412:Generated_Source\PSoC5/cyfitter_cfg.c **** 		*Pot_Values__addrTable[channel] &= (uint8)~Pot_Values__maskTable[channel];
 141              		.loc 1 412 0
 142 0008 4000     		lsls	r0, r0, #1
 143              	.LVL11:
 144 000a C0B2     		uxtb	r0, r0
 145              	.LVL12:
 146              		.loc 1 413 0
 147 000c 52F82010 		ldr	r1, [r2, r0, lsl #2]
 148 0010 1318     		adds	r3, r2, r0
 149 0012 1C7E     		ldrb	r4, [r3, #24]	@ zero_extendqisi2
 150 0014 0B78     		ldrb	r3, [r1]	@ zero_extendqisi2
 151 0016 23EA0403 		bic	r3, r3, r4
 152 001a 0B70     		strb	r3, [r1]
 153              	.LVL13:
ARM GAS  C:\Users\valer\AppData\Local\Temp\ccNDDXY6.s 			page 11


 414:Generated_Source\PSoC5/cyfitter_cfg.c **** 		channel++;
 415:Generated_Source\PSoC5/cyfitter_cfg.c **** 		*Pot_Values__addrTable[channel] &= (uint8)~Pot_Values__maskTable[channel];
 154              		.loc 1 415 0
 155 001c 431C     		adds	r3, r0, #1
 156 001e D8B2     		uxtb	r0, r3
 157              	.LVL14:
 158 0020 52F82010 		ldr	r1, [r2, r0, lsl #2]
 159 0024 1044     		add	r0, r0, r2
 160 0026 0B78     		ldrb	r3, [r1]	@ zero_extendqisi2
 161              	.LVL15:
 162 0028 027E     		ldrb	r2, [r0, #24]	@ zero_extendqisi2
 163 002a 23EA0203 		bic	r3, r3, r2
 164 002e 0B70     		strb	r3, [r1]
 165              	.L11:
 166 0030 10BD     		pop	{r4, pc}
 167              	.L14:
 168 0032 00BF     		.align	2
 169              	.L13:
 170 0034 00000000 		.word	.LANCHOR0
 171              		.cfi_endproc
 172              	.LFE9:
 173              		.size	Pot_Values_Unset, .-Pot_Values_Unset
 174              		.section	.text.cyfitter_cfg,"ax",%progbits
 175              		.align	1
 176              		.global	cyfitter_cfg
 177              		.thumb
 178              		.thumb_func
 179              		.type	cyfitter_cfg, %function
 180              	cyfitter_cfg:
 181              	.LFB10:
 416:Generated_Source\PSoC5/cyfitter_cfg.c **** 	}
 417:Generated_Source\PSoC5/cyfitter_cfg.c **** }
 418:Generated_Source\PSoC5/cyfitter_cfg.c **** 
 419:Generated_Source\PSoC5/cyfitter_cfg.c **** 
 420:Generated_Source\PSoC5/cyfitter_cfg.c **** 
 421:Generated_Source\PSoC5/cyfitter_cfg.c **** /*******************************************************************************
 422:Generated_Source\PSoC5/cyfitter_cfg.c **** * Function Name: cyfitter_cfg
 423:Generated_Source\PSoC5/cyfitter_cfg.c **** ********************************************************************************
 424:Generated_Source\PSoC5/cyfitter_cfg.c **** * Summary:
 425:Generated_Source\PSoC5/cyfitter_cfg.c **** *  This function is called by the start-up code for the selected device. It
 426:Generated_Source\PSoC5/cyfitter_cfg.c **** *  performs all of the necessary device configuration based on the design
 427:Generated_Source\PSoC5/cyfitter_cfg.c **** *  settings.  This includes settings from the Design Wide Resources (DWR) such
 428:Generated_Source\PSoC5/cyfitter_cfg.c **** *  as Clocks and Pins as well as any component configuration that is necessary.
 429:Generated_Source\PSoC5/cyfitter_cfg.c **** *
 430:Generated_Source\PSoC5/cyfitter_cfg.c **** * Parameters:
 431:Generated_Source\PSoC5/cyfitter_cfg.c **** *   void
 432:Generated_Source\PSoC5/cyfitter_cfg.c **** *
 433:Generated_Source\PSoC5/cyfitter_cfg.c **** * Return:
 434:Generated_Source\PSoC5/cyfitter_cfg.c **** *   void
 435:Generated_Source\PSoC5/cyfitter_cfg.c **** *
 436:Generated_Source\PSoC5/cyfitter_cfg.c **** *******************************************************************************/
 437:Generated_Source\PSoC5/cyfitter_cfg.c **** 
 438:Generated_Source\PSoC5/cyfitter_cfg.c **** void cyfitter_cfg(void)
 439:Generated_Source\PSoC5/cyfitter_cfg.c **** {
 182              		.loc 1 439 0
 183              		.cfi_startproc
 184              		@ args = 0, pretend = 0, frame = 0
ARM GAS  C:\Users\valer\AppData\Local\Temp\ccNDDXY6.s 			page 12


 185              		@ frame_needed = 0, uses_anonymous_args = 0
 186 0000 2DE9F041 		push	{r4, r5, r6, r7, r8, lr}
 187              		.cfi_def_cfa_offset 24
 188              		.cfi_offset 4, -24
 189              		.cfi_offset 5, -20
 190              		.cfi_offset 6, -16
 191              		.cfi_offset 7, -12
 192              		.cfi_offset 8, -8
 193              		.cfi_offset 14, -4
 440:Generated_Source\PSoC5/cyfitter_cfg.c **** #ifdef CYGlobalIntDisable
 441:Generated_Source\PSoC5/cyfitter_cfg.c **** 	/* Disable interrupts by default. Let user enable if/when they want. */
 442:Generated_Source\PSoC5/cyfitter_cfg.c **** 	CYGlobalIntDisable
 194              		.loc 1 442 0
 195              		.syntax unified
 196              	@ 442 "Generated_Source\PSoC5\cyfitter_cfg.c" 1
 197 0004 72B6     		CPSID   i
 198              	@ 0 "" 2
 443:Generated_Source\PSoC5/cyfitter_cfg.c **** #endif
 444:Generated_Source\PSoC5/cyfitter_cfg.c **** 
 445:Generated_Source\PSoC5/cyfitter_cfg.c **** 	/* Enable/Disable Debug functionality based on settings from System DWR */
 446:Generated_Source\PSoC5/cyfitter_cfg.c **** 	CY_SET_XTND_REG8((void CYFAR *)CYREG_MLOGIC_DEBUG, (CY_GET_XTND_REG8((void CYFAR *)CYREG_MLOGIC_DE
 199              		.loc 1 446 0
 200              		.thumb
 201              		.syntax unified
 202 0006 784A     		ldr	r2, .L30
 203              	.LBB48:
 204              	.LBB49:
 447:Generated_Source\PSoC5/cyfitter_cfg.c **** 
 448:Generated_Source\PSoC5/cyfitter_cfg.c **** 	{
 449:Generated_Source\PSoC5/cyfitter_cfg.c **** 
 450:Generated_Source\PSoC5/cyfitter_cfg.c **** 		CYPACKED typedef struct {
 451:Generated_Source\PSoC5/cyfitter_cfg.c **** 			void CYFAR *address;
 452:Generated_Source\PSoC5/cyfitter_cfg.c **** 			uint16 size;
 453:Generated_Source\PSoC5/cyfitter_cfg.c **** 		} CYPACKED_ATTR cfg_memset_t;
 454:Generated_Source\PSoC5/cyfitter_cfg.c **** 
 455:Generated_Source\PSoC5/cyfitter_cfg.c **** 
 456:Generated_Source\PSoC5/cyfitter_cfg.c **** 		CYPACKED typedef struct {
 457:Generated_Source\PSoC5/cyfitter_cfg.c **** 			void CYFAR *dest;
 458:Generated_Source\PSoC5/cyfitter_cfg.c **** 			const void CYFAR *src;
 459:Generated_Source\PSoC5/cyfitter_cfg.c **** 			uint16 size;
 460:Generated_Source\PSoC5/cyfitter_cfg.c **** 		} CYPACKED_ATTR cfg_memcpy_t;
 461:Generated_Source\PSoC5/cyfitter_cfg.c **** 
 462:Generated_Source\PSoC5/cyfitter_cfg.c **** 		static const cfg_memset_t CYCODE cfg_memset_list[] = {
 463:Generated_Source\PSoC5/cyfitter_cfg.c **** 			/* address, size */
 464:Generated_Source\PSoC5/cyfitter_cfg.c **** 			{(void CYFAR *)(CYREG_PRT2_DR), 16u},
 465:Generated_Source\PSoC5/cyfitter_cfg.c **** 			{(void CYFAR *)(CYREG_PRT4_DR), 48u},
 466:Generated_Source\PSoC5/cyfitter_cfg.c **** 			{(void CYFAR *)(CYREG_PRT15_DR), 16u},
 467:Generated_Source\PSoC5/cyfitter_cfg.c **** 			{(void CYFAR *)(CYDEV_UCFG_B0_P0_U0_BASE), 4096u},
 468:Generated_Source\PSoC5/cyfitter_cfg.c **** 			{(void CYFAR *)(CYDEV_UCFG_B1_P2_U0_BASE), 1024u},
 469:Generated_Source\PSoC5/cyfitter_cfg.c **** 			{(void CYFAR *)(CYDEV_UCFG_B1_P4_U1_BASE), 896u},
 470:Generated_Source\PSoC5/cyfitter_cfg.c **** 			{(void CYFAR *)(CYDEV_UCFG_DSI0_BASE), 2560u},
 471:Generated_Source\PSoC5/cyfitter_cfg.c **** 			{(void CYFAR *)(CYDEV_UCFG_DSI12_BASE), 512u},
 472:Generated_Source\PSoC5/cyfitter_cfg.c **** 			{(void CYFAR *)(CYREG_BCTL0_MDCLK_EN), 32u},
 473:Generated_Source\PSoC5/cyfitter_cfg.c **** 		};
 474:Generated_Source\PSoC5/cyfitter_cfg.c **** 
 475:Generated_Source\PSoC5/cyfitter_cfg.c **** 		static const cfg_memcpy_t CYCODE cfg_memcpy_list [] = {
 476:Generated_Source\PSoC5/cyfitter_cfg.c **** 			/* dest, src, size */
ARM GAS  C:\Users\valer\AppData\Local\Temp\ccNDDXY6.s 			page 13


 477:Generated_Source\PSoC5/cyfitter_cfg.c **** 			{(void CYFAR *)(CYDEV_UCFG_B1_P4_U0_BASE), BS_UDB_0_1_1_CONFIG_VAL, 128u},
 478:Generated_Source\PSoC5/cyfitter_cfg.c **** 		};
 479:Generated_Source\PSoC5/cyfitter_cfg.c **** 
 480:Generated_Source\PSoC5/cyfitter_cfg.c **** 		uint8 CYDATA i;
 481:Generated_Source\PSoC5/cyfitter_cfg.c **** 
 482:Generated_Source\PSoC5/cyfitter_cfg.c **** 		/* Zero out critical memory blocks before beginning configuration */
 483:Generated_Source\PSoC5/cyfitter_cfg.c **** 		for (i = 0u; i < (sizeof(cfg_memset_list)/sizeof(cfg_memset_list[0])); i++)
 484:Generated_Source\PSoC5/cyfitter_cfg.c **** 		{
 485:Generated_Source\PSoC5/cyfitter_cfg.c **** 			const cfg_memset_t CYCODE * CYDATA ms = &cfg_memset_list[i];
 486:Generated_Source\PSoC5/cyfitter_cfg.c **** 			CYMEMZERO(ms->address, (size_t)(uint32)(ms->size));
 205              		.loc 1 486 0
 206 0008 784D     		ldr	r5, .L30+4
 207              	.LBE49:
 208              	.LBE48:
 446:Generated_Source\PSoC5/cyfitter_cfg.c **** 
 209              		.loc 1 446 0
 210 000a 1378     		ldrb	r3, [r2]	@ zero_extendqisi2
 211 000c 0024     		movs	r4, #0
 212 000e 43F00403 		orr	r3, r3, #4
 213 0012 1370     		strb	r3, [r2]
 214              	.LVL16:
 215              	.LBB64:
 216              	.LBB52:
 217              		.loc 1 486 0
 218 0014 0626     		movs	r6, #6
 219              	.LVL17:
 220              	.L16:
 221              		.loc 1 486 0 is_stmt 0 discriminator 3
 222 0016 06FB0453 		mla	r3, r6, r4, r5
 223              	.LBB50:
 224              	.LBB51:
  79:Generated_Source\PSoC5/cyfitter_cfg.c **** }
 225              		.loc 1 79 0 is_stmt 1 discriminator 3
 226 001a 0021     		movs	r1, #0
 227 001c 5A8C     		ldrh	r2, [r3, #34]	@ unaligned
 228 001e D3F81E00 		ldr	r0, [r3, #30]	@ unaligned
 229 0022 0134     		adds	r4, r4, #1
 230              	.LVL18:
 231 0024 FFF7FEFF 		bl	memset
 232              	.LVL19:
 233              	.LBE51:
 234              	.LBE50:
 235              	.LBE52:
 483:Generated_Source\PSoC5/cyfitter_cfg.c **** 		{
 236              		.loc 1 483 0 discriminator 3
 237 0028 092C     		cmp	r4, #9
 238 002a F4D1     		bne	.L16
 239              	.LVL20:
 240              	.LBB53:
 241              	.LBB54:
 242              	.LBB55:
  86:Generated_Source\PSoC5/cyfitter_cfg.c **** }
 243              		.loc 1 86 0 discriminator 3
 244 002c 8022     		movs	r2, #128
 245 002e 7049     		ldr	r1, .L30+8
 246 0030 7048     		ldr	r0, .L30+12
 247 0032 FFF7FEFF 		bl	memcpy
ARM GAS  C:\Users\valer\AppData\Local\Temp\ccNDDXY6.s 			page 14


 248              	.LVL21:
 249              	.LBE55:
 250              	.LBE54:
 251              	.LBE53:
 252              	.LBB58:
 253              	.LBB59:
 199:Generated_Source\PSoC5/cyfitter_cfg.c **** 	{
 254              		.loc 1 199 0 discriminator 3
 255 0036 704D     		ldr	r5, .L30+16
 256              	.LBE59:
 257              	.LBE58:
 258              	.LBB62:
 259              	.LBB57:
 260              	.LBB56:
  86:Generated_Source\PSoC5/cyfitter_cfg.c **** }
 261              		.loc 1 86 0 discriminator 3
 262 0038 7048     		ldr	r0, .L30+20
 263 003a 0024     		movs	r4, #0
 264              	.LVL22:
 265              	.L19:
 266              	.LBE56:
 267              	.LBE57:
 268              	.LBE62:
 269              	.LBB63:
 270              	.LBB61:
 271              	.LBB60:
 201:Generated_Source\PSoC5/cyfitter_cfg.c **** 		uint8 count = (uint8)baseAddr;
 272              		.loc 1 201 0
 273 003c 50F8041F 		ldr	r1, [r0, #4]!
 274              	.LVL23:
 275 0040 04F11053 		add	r3, r4, #603979776
 276 0044 03F12E02 		add	r2, r3, #46
 203:Generated_Source\PSoC5/cyfitter_cfg.c **** 		while (count != 0u)
 277              		.loc 1 203 0
 278 0048 21F0FF06 		bic	r6, r1, #255
 279              	.LVL24:
 280 004c 2F33     		adds	r3, r3, #47
 281 004e C9B2     		uxtb	r1, r1
 282 0050 0B44     		add	r3, r3, r1
 283 0052 5200     		lsls	r2, r2, #1
 284 0054 5B00     		lsls	r3, r3, #1
 285              	.LVL25:
 286              	.L17:
 287 0056 0232     		adds	r2, r2, #2
 204:Generated_Source\PSoC5/cyfitter_cfg.c **** 		{
 288              		.loc 1 204 0
 289 0058 9342     		cmp	r3, r2
 290 005a 06D0     		beq	.L29
 206:Generated_Source\PSoC5/cyfitter_cfg.c **** 			j++;
 291              		.loc 1 206 0
 292 005c 12F8027C 		ldrb	r7, [r2, #-2]	@ zero_extendqisi2
 293 0060 12F801EC 		ldrb	lr, [r2, #-1]	@ zero_extendqisi2
 294 0064 07F806E0 		strb	lr, [r7, r6]
 295 0068 F5E7     		b	.L17
 296              	.L29:
 297              	.LBE60:
 199:Generated_Source\PSoC5/cyfitter_cfg.c **** 	{
ARM GAS  C:\Users\valer\AppData\Local\Temp\ccNDDXY6.s 			page 15


 298              		.loc 1 199 0
 299 006a A842     		cmp	r0, r5
 300 006c 0C44     		add	r4, r4, r1
 301              	.LVL26:
 302 006e E5D1     		bne	.L19
 303              	.LVL27:
 304              	.LBE61:
 305              	.LBE63:
 487:Generated_Source\PSoC5/cyfitter_cfg.c **** 		}
 488:Generated_Source\PSoC5/cyfitter_cfg.c **** 
 489:Generated_Source\PSoC5/cyfitter_cfg.c **** 		/* Copy device configuration data into registers */
 490:Generated_Source\PSoC5/cyfitter_cfg.c **** 		for (i = 0u; i < (sizeof(cfg_memcpy_list)/sizeof(cfg_memcpy_list[0])); i++)
 491:Generated_Source\PSoC5/cyfitter_cfg.c **** 		{
 492:Generated_Source\PSoC5/cyfitter_cfg.c **** 			const cfg_memcpy_t CYCODE * CYDATA mc = &cfg_memcpy_list[i];
 493:Generated_Source\PSoC5/cyfitter_cfg.c **** 			void * CYDATA destPtr = mc->dest;
 494:Generated_Source\PSoC5/cyfitter_cfg.c **** 			const void * CYDATA srcPtr = mc->src;
 495:Generated_Source\PSoC5/cyfitter_cfg.c **** 			uint16 CYDATA numBytes = mc->size;
 496:Generated_Source\PSoC5/cyfitter_cfg.c **** 			CYCONFIGCPY(destPtr, srcPtr, numBytes);
 497:Generated_Source\PSoC5/cyfitter_cfg.c **** 		}
 498:Generated_Source\PSoC5/cyfitter_cfg.c **** 
 499:Generated_Source\PSoC5/cyfitter_cfg.c **** 		cfg_write_bytes32(cy_cfg_addr_table, cy_cfg_data_table);
 500:Generated_Source\PSoC5/cyfitter_cfg.c **** 
 501:Generated_Source\PSoC5/cyfitter_cfg.c **** 		/* Enable digital routing */
 502:Generated_Source\PSoC5/cyfitter_cfg.c **** 		CY_SET_XTND_REG8((void CYFAR *)CYREG_BCTL0_BANK_CTL, CY_GET_XTND_REG8((void CYFAR *)CYREG_BCTL0_B
 306              		.loc 1 502 0
 307 0070 634A     		ldr	r2, .L30+24
 503:Generated_Source\PSoC5/cyfitter_cfg.c **** 		CY_SET_XTND_REG8((void CYFAR *)CYREG_BCTL1_BANK_CTL, CY_GET_XTND_REG8((void CYFAR *)CYREG_BCTL1_B
 504:Generated_Source\PSoC5/cyfitter_cfg.c **** 
 505:Generated_Source\PSoC5/cyfitter_cfg.c **** 		/* Enable UDB array */
 506:Generated_Source\PSoC5/cyfitter_cfg.c **** 		CY_SET_XTND_REG8((void CYFAR *)CYREG_PM_ACT_CFG0, CY_GET_XTND_REG8((void CYFAR *)CYREG_PM_ACT_CFG
 308              		.loc 1 506 0
 309 0072 644C     		ldr	r4, .L30+28
 502:Generated_Source\PSoC5/cyfitter_cfg.c **** 		CY_SET_XTND_REG8((void CYFAR *)CYREG_BCTL1_BANK_CTL, CY_GET_XTND_REG8((void CYFAR *)CYREG_BCTL1_B
 310              		.loc 1 502 0
 311 0074 1378     		ldrb	r3, [r2]	@ zero_extendqisi2
 312              	.LBE64:
 313              	.LBB65:
 314              	.LBB66:
  86:Generated_Source\PSoC5/cyfitter_cfg.c **** }
 315              		.loc 1 86 0
 316 0076 644D     		ldr	r5, .L30+32
 317              	.LBE66:
 318              	.LBE65:
 319              	.LBB68:
 502:Generated_Source\PSoC5/cyfitter_cfg.c **** 		CY_SET_XTND_REG8((void CYFAR *)CYREG_BCTL1_BANK_CTL, CY_GET_XTND_REG8((void CYFAR *)CYREG_BCTL1_B
 320              		.loc 1 502 0
 321 0078 43F00203 		orr	r3, r3, #2
 322 007c 1370     		strb	r3, [r2]
 503:Generated_Source\PSoC5/cyfitter_cfg.c **** 		CY_SET_XTND_REG8((void CYFAR *)CYREG_BCTL1_BANK_CTL, CY_GET_XTND_REG8((void CYFAR *)CYREG_BCTL1_B
 323              		.loc 1 503 0
 324 007e 137C     		ldrb	r3, [r2, #16]	@ zero_extendqisi2
 325              	.LBE68:
 326              	.LBB69:
 327              	.LBB70:
 258:Generated_Source\PSoC5/cyfitter_cfg.c **** 		CyDelayCycles(10u * 48u); /* Delay 10us based on 48MHz clock */
 328              		.loc 1 258 0
 329 0080 624F     		ldr	r7, .L30+36
ARM GAS  C:\Users\valer\AppData\Local\Temp\ccNDDXY6.s 			page 16


 330              	.LBE70:
 331              	.LBE69:
 332              	.LBB82:
 503:Generated_Source\PSoC5/cyfitter_cfg.c **** 
 333              		.loc 1 503 0
 334 0082 43F00203 		orr	r3, r3, #2
 335 0086 1374     		strb	r3, [r2, #16]
 336              		.loc 1 506 0
 337 0088 2378     		ldrb	r3, [r4]	@ zero_extendqisi2
 507:Generated_Source\PSoC5/cyfitter_cfg.c **** 		CY_SET_XTND_REG8((void CYFAR *)CYREG_PM_AVAIL_CR2, CY_GET_XTND_REG8((void CYFAR *)CYREG_PM_AVAIL_
 338              		.loc 1 507 0
 339 008a A2F58632 		sub	r2, r2, #68608
 506:Generated_Source\PSoC5/cyfitter_cfg.c **** 		CY_SET_XTND_REG8((void CYFAR *)CYREG_PM_AVAIL_CR2, CY_GET_XTND_REG8((void CYFAR *)CYREG_PM_AVAIL_
 340              		.loc 1 506 0
 341 008e 43F04003 		orr	r3, r3, #64
 342 0092 2370     		strb	r3, [r4]
 343              		.loc 1 507 0
 344 0094 413A     		subs	r2, r2, #65
 345 0096 1378     		ldrb	r3, [r2]	@ zero_extendqisi2
 346              	.LBE82:
 347              	.LBB83:
 348              	.LBB75:
 253:Generated_Source\PSoC5/cyfitter_cfg.c **** 	/* Wait up to 250us for the PLL to lock */
 349              		.loc 1 253 0
 350 0098 1926     		movs	r6, #25
 351              	.LBE75:
 352              	.LBE83:
 353              	.LBB84:
 354              		.loc 1 507 0
 355 009a 43F01003 		orr	r3, r3, #16
 356 009e 1370     		strb	r3, [r2]
 357              	.LVL28:
 358              	.LBE84:
 359              	.LBB85:
 360              	.LBB86:
  86:Generated_Source\PSoC5/cyfitter_cfg.c **** }
 361              		.loc 1 86 0
 362 00a0 5B4B     		ldr	r3, .L30+40
 363 00a2 03CB     		ldmia	r3!, {r0, r1}
 364 00a4 C2F8400D 		str	r0, [r2, #3392]	@ unaligned
 365 00a8 C2F8441D 		str	r1, [r2, #3396]	@ unaligned
 366              	.LVL29:
 367              	.LBE86:
 368              	.LBE85:
 369              	.LBB87:
 370              	.LBB67:
 371 00ac 93E80700 		ldmia	r3, {r0, r1, r2}
 372 00b0 03C5     		stmia	r5!, {r0, r1}
 373 00b2 2A80     		strh	r2, [r5]	@ movhi
 374              	.LVL30:
 375              	.LBE67:
 376              	.LBE87:
 377              	.LBB88:
 378              	.LBB89:
 379 00b4 574A     		ldr	r2, .L30+44
 380 00b6 0C33     		adds	r3, r3, #12
 381 00b8 03CB     		ldmia	r3!, {r0, r1}
ARM GAS  C:\Users\valer\AppData\Local\Temp\ccNDDXY6.s 			page 17


 382 00ba 1060     		str	r0, [r2]	@ unaligned
 383 00bc 5160     		str	r1, [r2, #4]	@ unaligned
 384              	.LVL31:
 385              	.LBE89:
 386              	.LBE88:
 387              	.LBB90:
 388              	.LBB91:
 389 00be 03CB     		ldmia	r3!, {r0, r1}
 390 00c0 5162     		str	r1, [r2, #36]	@ unaligned
 391              	.LVL32:
 392              	.LBE91:
 393              	.LBE90:
 508:Generated_Source\PSoC5/cyfitter_cfg.c **** 	}
 509:Generated_Source\PSoC5/cyfitter_cfg.c **** 
 510:Generated_Source\PSoC5/cyfitter_cfg.c **** 
 511:Generated_Source\PSoC5/cyfitter_cfg.c **** 	/* Perform second pass device configuration. These items must be configured in specific order afte
 512:Generated_Source\PSoC5/cyfitter_cfg.c **** 	CYCONFIGCPY((void CYFAR *)(CYREG_PRT0_DM0), (const void CYFAR *)(BS_IOPINS0_0_VAL), 8u);
 513:Generated_Source\PSoC5/cyfitter_cfg.c **** 	CYCONFIGCPY((void CYFAR *)(CYREG_PRT12_DR), (const void CYFAR *)(BS_IOPINS0_7_VAL), 10u);
 514:Generated_Source\PSoC5/cyfitter_cfg.c **** 	CYCONFIGCPY((void CYFAR *)(CYREG_PRT1_DM0), (const void CYFAR *)(BS_IOPINS0_1_VAL), 8u);
 515:Generated_Source\PSoC5/cyfitter_cfg.c **** 	CYCONFIGCPY((void CYFAR *)(CYREG_PRT3_DM0), (const void CYFAR *)(BS_IOPINS0_3_VAL), 8u);
 516:Generated_Source\PSoC5/cyfitter_cfg.c **** 	/* Switch Boost to the precision bandgap reference from its internal reference */
 517:Generated_Source\PSoC5/cyfitter_cfg.c **** 	CY_SET_REG8((void CYXDATA *)CYREG_BOOST_CR2, (CY_GET_REG8((void CYXDATA *)CYREG_BOOST_CR2) | 0x08u
 394              		.loc 1 517 0
 395 00c2 5549     		ldr	r1, .L30+48
 396              	.LBB93:
 397              	.LBB92:
  86:Generated_Source\PSoC5/cyfitter_cfg.c **** }
 398              		.loc 1 86 0
 399 00c4 1062     		str	r0, [r2, #32]	@ unaligned
 400              	.LBE92:
 401              	.LBE93:
 402              		.loc 1 517 0
 403 00c6 0A78     		ldrb	r2, [r1]	@ zero_extendqisi2
 404              	.LBB94:
 405              	.LBB76:
 255:Generated_Source\PSoC5/cyfitter_cfg.c **** 	for (timeout = 250u / 10u; (timeout > 0u) && (pllLock != 0x03u); timeout--)
 406              		.loc 1 255 0
 407 00c8 0025     		movs	r5, #0
 408              	.LBE76:
 409              	.LBE94:
 410              		.loc 1 517 0
 411 00ca 42F00802 		orr	r2, r2, #8
 412 00ce 0A70     		strb	r2, [r1]
 518:Generated_Source\PSoC5/cyfitter_cfg.c **** 
 519:Generated_Source\PSoC5/cyfitter_cfg.c **** 	/* Set Flash Cycles based on max possible frequency in case a glitch occurs during ClockSetup(). *
 520:Generated_Source\PSoC5/cyfitter_cfg.c **** 	CY_SET_XTND_REG8((void CYFAR *)(CYREG_CACHE_CC_CTL), (((CYDEV_INSTRUCT_CACHE_ENABLED) != 0) ? 0x61
 413              		.loc 1 520 0
 414 00d0 524A     		ldr	r2, .L30+52
 415 00d2 6121     		movs	r1, #97
 416 00d4 1170     		strb	r1, [r2]
 417              	.LBB95:
 418              	.LBB77:
 237:Generated_Source\PSoC5/cyfitter_cfg.c **** 	CY_SET_XTND_REG8((void CYFAR *)(CYREG_CLKDIST_DCFG0_CFG0 + 0x2u), 0x18u);
 419              		.loc 1 237 0
 420 00d6 A2F5F062 		sub	r2, r2, #1920
 421 00da 4FF49C71 		mov	r1, #312
 422 00de 1180     		strh	r1, [r2]	@ movhi
ARM GAS  C:\Users\valer\AppData\Local\Temp\ccNDDXY6.s 			page 18


 238:Generated_Source\PSoC5/cyfitter_cfg.c **** 
 423              		.loc 1 238 0
 424 00e0 1821     		movs	r1, #24
 425 00e2 9170     		strb	r1, [r2, #2]
 426              	.LVL33:
 427 00e4 1A68     		ldr	r2, [r3]
 428              	.LBB71:
 429              	.LBB72:
  86:Generated_Source\PSoC5/cyfitter_cfg.c **** }
 430              		.loc 1 86 0
 431 00e6 4E4B     		ldr	r3, .L30+56
 432              	.LBE72:
 433              	.LBE71:
 248:Generated_Source\PSoC5/cyfitter_cfg.c **** 	CY_SET_XTND_REG8((void CYFAR *)(CYREG_IMO_TR1), (CY_GET_XTND_REG8((void CYFAR *)CYREG_FLSHID_CUST_
 434              		.loc 1 248 0
 435 00e8 0321     		movs	r1, #3
 436              	.LBB74:
 437              	.LBB73:
  86:Generated_Source\PSoC5/cyfitter_cfg.c **** }
 438              		.loc 1 86 0
 439 00ea 1A60     		str	r2, [r3]
 440              	.LVL34:
 441              	.LBE73:
 442              	.LBE74:
 244:Generated_Source\PSoC5/cyfitter_cfg.c **** 	CY_SET_XTND_REG8((void CYFAR *)(CYREG_CLKDIST_CR), 0x08u);
 443              		.loc 1 244 0
 444 00ec 0222     		movs	r2, #2
 445 00ee 83F80022 		strb	r2, [r3, #512]
 245:Generated_Source\PSoC5/cyfitter_cfg.c **** 
 446              		.loc 1 245 0
 447 00f2 0822     		movs	r2, #8
 448 00f4 4FF04023 		mov	r3, #1073758208
 449 00f8 1A70     		strb	r2, [r3]
 248:Generated_Source\PSoC5/cyfitter_cfg.c **** 	CY_SET_XTND_REG8((void CYFAR *)(CYREG_IMO_TR1), (CY_GET_XTND_REG8((void CYFAR *)CYREG_FLSHID_CUST_
 450              		.loc 1 248 0
 451 00fa 83F80012 		strb	r1, [r3, #512]
 249:Generated_Source\PSoC5/cyfitter_cfg.c **** 
 452              		.loc 1 249 0
 453 00fe 494B     		ldr	r3, .L30+60
 454 0100 4949     		ldr	r1, .L30+64
 455 0102 1B78     		ldrb	r3, [r3]	@ zero_extendqisi2
 456 0104 DBB2     		uxtb	r3, r3
 457 0106 0B70     		strb	r3, [r1]
 252:Generated_Source\PSoC5/cyfitter_cfg.c **** 	CY_SET_XTND_REG16((void CYFAR *)(CYREG_FASTCLK_PLL_CFG0), 0x1251u);
 458              		.loc 1 252 0
 459 0108 484B     		ldr	r3, .L30+68
 460 010a 1A80     		strh	r2, [r3]	@ movhi
 253:Generated_Source\PSoC5/cyfitter_cfg.c **** 	/* Wait up to 250us for the PLL to lock */
 461              		.loc 1 253 0
 462 010c 41F25122 		movw	r2, #4689
 463 0110 23F8022C 		strh	r2, [r3, #-2]	@ movhi
 464              	.LVL35:
 465              	.L21:
 258:Generated_Source\PSoC5/cyfitter_cfg.c **** 		CyDelayCycles(10u * 48u); /* Delay 10us based on 48MHz clock */
 466              		.loc 1 258 0
 467 0114 3B78     		ldrb	r3, [r7]	@ zero_extendqisi2
 259:Generated_Source\PSoC5/cyfitter_cfg.c **** 	}
ARM GAS  C:\Users\valer\AppData\Local\Temp\ccNDDXY6.s 			page 19


 468              		.loc 1 259 0
 469 0116 4FF4F070 		mov	r0, #480
 258:Generated_Source\PSoC5/cyfitter_cfg.c **** 		CyDelayCycles(10u * 48u); /* Delay 10us based on 48MHz clock */
 470              		.loc 1 258 0
 471 011a 03F00103 		and	r3, r3, #1
 472 011e 43EA4505 		orr	r5, r3, r5, lsl #1
 473              	.LVL36:
 259:Generated_Source\PSoC5/cyfitter_cfg.c **** 	}
 474              		.loc 1 259 0
 475 0122 FFF7FEFF 		bl	CyDelayCycles
 476              	.LVL37:
 256:Generated_Source\PSoC5/cyfitter_cfg.c **** 	{ 
 477              		.loc 1 256 0
 478 0126 013E     		subs	r6, r6, #1
 479              	.LVL38:
 258:Generated_Source\PSoC5/cyfitter_cfg.c **** 		CyDelayCycles(10u * 48u); /* Delay 10us based on 48MHz clock */
 480              		.loc 1 258 0
 481 0128 05F00305 		and	r5, r5, #3
 482              	.LVL39:
 256:Generated_Source\PSoC5/cyfitter_cfg.c **** 	{ 
 483              		.loc 1 256 0
 484 012c 5AD0     		beq	.L20
 485              	.LVL40:
 486 012e 032D     		cmp	r5, #3
 487 0130 F0D1     		bne	.L21
 268:Generated_Source\PSoC5/cyfitter_cfg.c **** 	CY_SET_XTND_REG8((void CYFAR *)(CYREG_CLKDIST_MSTR0), 0x07u);
 488              		.loc 1 268 0
 489 0132 3F4B     		ldr	r3, .L30+72
 490 0134 4FF48072 		mov	r2, #256
 491 0138 1A80     		strh	r2, [r3]	@ movhi
 270:Generated_Source\PSoC5/cyfitter_cfg.c **** 	CY_SET_XTND_REG8((void CYFAR *)(CYREG_CLKDIST_BCFG2), 0x48u);
 492              		.loc 1 270 0
 493 013a 3E49     		ldr	r1, .L30+76
 269:Generated_Source\PSoC5/cyfitter_cfg.c **** 	CY_SET_XTND_REG8((void CYFAR *)(CYREG_CLKDIST_BCFG0), 0x00u);
 494              		.loc 1 269 0
 495 013c 0722     		movs	r2, #7
 496 013e 1A70     		strb	r2, [r3]
 271:Generated_Source\PSoC5/cyfitter_cfg.c **** 	CY_SET_XTND_REG8((void CYFAR *)(CYREG_CLKDIST_MSTR0), 0x00u);
 497              		.loc 1 271 0
 498 0140 4820     		movs	r0, #72
 270:Generated_Source\PSoC5/cyfitter_cfg.c **** 	CY_SET_XTND_REG8((void CYFAR *)(CYREG_CLKDIST_BCFG2), 0x48u);
 499              		.loc 1 270 0
 500 0142 0022     		movs	r2, #0
 501 0144 0A70     		strb	r2, [r1]
 271:Generated_Source\PSoC5/cyfitter_cfg.c **** 	CY_SET_XTND_REG8((void CYFAR *)(CYREG_CLKDIST_MSTR0), 0x00u);
 502              		.loc 1 271 0
 503 0146 8870     		strb	r0, [r1, #2]
 272:Generated_Source\PSoC5/cyfitter_cfg.c **** 	CY_SET_XTND_REG8((void CYFAR *)(CYREG_CLKDIST_LD), 0x02u);
 504              		.loc 1 272 0
 505 0148 1A70     		strb	r2, [r3]
 273:Generated_Source\PSoC5/cyfitter_cfg.c **** 	CY_SET_XTND_REG8((void CYFAR *)(CYREG_CLKDIST_DLY1), 0x04u);
 506              		.loc 1 273 0
 507 014a 0222     		movs	r2, #2
 508 014c 03F8032C 		strb	r2, [r3, #-3]
 274:Generated_Source\PSoC5/cyfitter_cfg.c **** 
 509              		.loc 1 274 0
 510 0150 0422     		movs	r2, #4
ARM GAS  C:\Users\valer\AppData\Local\Temp\ccNDDXY6.s 			page 20


 511 0152 DA71     		strb	r2, [r3, #7]
 276:Generated_Source\PSoC5/cyfitter_cfg.c **** 	CY_SET_XTND_REG8((void CYFAR *)(CYREG_PM_ACT_CFG1), ((CY_GET_XTND_REG8((void CYFAR *)CYREG_PM_ACT_
 512              		.loc 1 276 0
 513 0154 384A     		ldr	r2, .L30+80
 514              	.LBE77:
 515              	.LBE95:
 516              	.LBB96:
 517              	.LBB97:
 304:Generated_Source\PSoC5/cyfitter_cfg.c **** 	uint8 cr5 = CY_GET_XTND_REG8((void CYFAR *)(CYREG_RESET_CR5));
 518              		.loc 1 304 0
 519 0156 394F     		ldr	r7, .L30+84
 520              	.LBE97:
 521              	.LBE96:
 522              	.LBB102:
 523              	.LBB78:
 276:Generated_Source\PSoC5/cyfitter_cfg.c **** 	CY_SET_XTND_REG8((void CYFAR *)(CYREG_PM_ACT_CFG1), ((CY_GET_XTND_REG8((void CYFAR *)CYREG_PM_ACT_
 524              		.loc 1 276 0
 525 0158 1378     		ldrb	r3, [r2]	@ zero_extendqisi2
 526              	.LBE78:
 527              	.LBE102:
 528              	.LBB103:
 529              	.LBB98:
 305:Generated_Source\PSoC5/cyfitter_cfg.c **** 	CY_SET_XTND_REG8((void CYFAR *)(CYREG_BG_DFT0), (bg_xover_inl_trim & 0x07u));
 530              		.loc 1 305 0
 531 015a DFF8F880 		ldr	r8, .L30+108
 532              	.LBE98:
 533              	.LBE103:
 534              	.LBB104:
 535              	.LBB79:
 276:Generated_Source\PSoC5/cyfitter_cfg.c **** 	CY_SET_XTND_REG8((void CYFAR *)(CYREG_PM_ACT_CFG1), ((CY_GET_XTND_REG8((void CYFAR *)CYREG_PM_ACT_
 536              		.loc 1 276 0
 537 015e 43F00103 		orr	r3, r3, #1
 538 0162 1370     		strb	r3, [r2]
 277:Generated_Source\PSoC5/cyfitter_cfg.c **** 	CY_SET_XTND_REG8((void CYFAR *)(CYREG_PM_ACT_CFG0), ((CY_GET_XTND_REG8((void CYFAR *)CYREG_PM_ACT_
 539              		.loc 1 277 0
 540 0164 12F8013C 		ldrb	r3, [r2, #-1]	@ zero_extendqisi2
 541              	.LBE79:
 542              	.LBE104:
 543              	.LBB105:
 544              	.LBB99:
 314:Generated_Source\PSoC5/cyfitter_cfg.c **** 	CY_SET_XTND_REG8((void CYFAR *)(CYREG_RESET_CR5), (cr5));
 545              		.loc 1 314 0
 546 0168 0A20     		movs	r0, #10
 547              	.LBE99:
 548              	.LBE105:
 549              	.LBB106:
 550              	.LBB80:
 277:Generated_Source\PSoC5/cyfitter_cfg.c **** 	CY_SET_XTND_REG8((void CYFAR *)(CYREG_PM_ACT_CFG0), ((CY_GET_XTND_REG8((void CYFAR *)CYREG_PM_ACT_
 551              		.loc 1 277 0
 552 016a 43F00103 		orr	r3, r3, #1
 553 016e 02F8013C 		strb	r3, [r2, #-1]
 278:Generated_Source\PSoC5/cyfitter_cfg.c **** }
 554              		.loc 1 278 0
 555 0172 2378     		ldrb	r3, [r4]	@ zero_extendqisi2
 556              	.LBE80:
 557              	.LBE106:
 521:Generated_Source\PSoC5/cyfitter_cfg.c **** 	/* Setup clocks based on selections from Clock DWR */
ARM GAS  C:\Users\valer\AppData\Local\Temp\ccNDDXY6.s 			page 21


 522:Generated_Source\PSoC5/cyfitter_cfg.c **** 	ClockSetup();
 523:Generated_Source\PSoC5/cyfitter_cfg.c **** 	/* Set Flash Cycles based on newly configured 24.00MHz Bus Clock. */
 524:Generated_Source\PSoC5/cyfitter_cfg.c **** 	CY_SET_XTND_REG8((void CYFAR *)(CYREG_CACHE_CC_CTL), (((CYDEV_INSTRUCT_CACHE_ENABLED) != 0) ? 0x81
 558              		.loc 1 524 0
 559 0174 8122     		movs	r2, #129
 560              	.LBB107:
 561              	.LBB81:
 278:Generated_Source\PSoC5/cyfitter_cfg.c **** }
 562              		.loc 1 278 0
 563 0176 43F08003 		orr	r3, r3, #128
 564 017a 2370     		strb	r3, [r4]
 565              	.LVL41:
 566              	.LBE81:
 567              	.LBE107:
 568              		.loc 1 524 0
 569 017c 274B     		ldr	r3, .L30+52
 570 017e 1A70     		strb	r2, [r3]
 525:Generated_Source\PSoC5/cyfitter_cfg.c **** 	CY_SET_XTND_REG8((void CYFAR *)(CYREG_PANTHER_WAITPIPE), 0x01u);
 571              		.loc 1 525 0
 572 0180 03F5F723 		add	r3, r3, #505856
 573 0184 0122     		movs	r2, #1
 574 0186 0433     		adds	r3, r3, #4
 575 0188 1A70     		strb	r2, [r3]
 576              	.LBB108:
 577              	.LBB100:
 303:Generated_Source\PSoC5/cyfitter_cfg.c **** 	uint8 cr4 = CY_GET_XTND_REG8((void CYFAR *)(CYREG_RESET_CR4));
 578              		.loc 1 303 0
 579 018a 2D4B     		ldr	r3, .L30+88
 306:Generated_Source\PSoC5/cyfitter_cfg.c **** 	CY_SET_XTND_REG8((void CYFAR *)(CYREG_BG_DFT1), ((bg_xover_inl_trim >> 4) & 0x0Fu));
 580              		.loc 1 306 0
 581 018c 2D4A     		ldr	r2, .L30+92
 303:Generated_Source\PSoC5/cyfitter_cfg.c **** 	uint8 cr4 = CY_GET_XTND_REG8((void CYFAR *)(CYREG_RESET_CR4));
 582              		.loc 1 303 0
 583 018e 1B78     		ldrb	r3, [r3]	@ zero_extendqisi2
 304:Generated_Source\PSoC5/cyfitter_cfg.c **** 	uint8 cr5 = CY_GET_XTND_REG8((void CYFAR *)(CYREG_RESET_CR5));
 584              		.loc 1 304 0
 585 0190 3D78     		ldrb	r5, [r7]	@ zero_extendqisi2
 303:Generated_Source\PSoC5/cyfitter_cfg.c **** 	uint8 cr4 = CY_GET_XTND_REG8((void CYFAR *)(CYREG_RESET_CR4));
 586              		.loc 1 303 0
 587 0192 DBB2     		uxtb	r3, r3
 588              	.LVL42:
 305:Generated_Source\PSoC5/cyfitter_cfg.c **** 	CY_SET_XTND_REG8((void CYFAR *)(CYREG_BG_DFT0), (bg_xover_inl_trim & 0x07u));
 589              		.loc 1 305 0
 590 0194 98F80060 		ldrb	r6, [r8]	@ zero_extendqisi2
 306:Generated_Source\PSoC5/cyfitter_cfg.c **** 	CY_SET_XTND_REG8((void CYFAR *)(CYREG_BG_DFT1), ((bg_xover_inl_trim >> 4) & 0x0Fu));
 591              		.loc 1 306 0
 592 0198 03F00701 		and	r1, r3, #7
 304:Generated_Source\PSoC5/cyfitter_cfg.c **** 	uint8 cr5 = CY_GET_XTND_REG8((void CYFAR *)(CYREG_RESET_CR5));
 593              		.loc 1 304 0
 594 019c EDB2     		uxtb	r5, r5
 595              	.LVL43:
 307:Generated_Source\PSoC5/cyfitter_cfg.c **** 	/* Disable PRES while setting up SAR voltage reference */
 596              		.loc 1 307 0
 597 019e 1B09     		lsrs	r3, r3, #4
 598              	.LVL44:
 306:Generated_Source\PSoC5/cyfitter_cfg.c **** 	CY_SET_XTND_REG8((void CYFAR *)(CYREG_BG_DFT1), ((bg_xover_inl_trim >> 4) & 0x0Fu));
 599              		.loc 1 306 0
ARM GAS  C:\Users\valer\AppData\Local\Temp\ccNDDXY6.s 			page 22


 600 01a0 1170     		strb	r1, [r2]
 305:Generated_Source\PSoC5/cyfitter_cfg.c **** 	CY_SET_XTND_REG8((void CYFAR *)(CYREG_BG_DFT0), (bg_xover_inl_trim & 0x07u));
 601              		.loc 1 305 0
 602 01a2 F6B2     		uxtb	r6, r6
 603              	.LVL45:
 307:Generated_Source\PSoC5/cyfitter_cfg.c **** 	/* Disable PRES while setting up SAR voltage reference */
 604              		.loc 1 307 0
 605 01a4 5370     		strb	r3, [r2, #1]
 309:Generated_Source\PSoC5/cyfitter_cfg.c **** 	CY_SET_XTND_REG8((void CYFAR *)(CYREG_RESET_CR5), (cr5 | 0x03u));
 606              		.loc 1 309 0
 607 01a6 45F00303 		orr	r3, r5, #3
 608 01aa 3B70     		strb	r3, [r7]
 310:Generated_Source\PSoC5/cyfitter_cfg.c **** 	CY_SET_XTND_REG8((void CYFAR *)CYREG_SAR0_CSR1, 0x80u);
 609              		.loc 1 310 0
 610 01ac 46F00303 		orr	r3, r6, #3
 611 01b0 88F80030 		strb	r3, [r8]
 311:Generated_Source\PSoC5/cyfitter_cfg.c **** 	CY_SET_XTND_REG8((void CYFAR *)CYREG_SAR0_SW3, 0x20u);
 612              		.loc 1 311 0
 613 01b4 244B     		ldr	r3, .L30+96
 614 01b6 8022     		movs	r2, #128
 615 01b8 1A70     		strb	r2, [r3]
 312:Generated_Source\PSoC5/cyfitter_cfg.c **** 	CY_SET_XTND_REG8((void CYFAR *)CYREG_BUS_SW0, 0x40u);
 616              		.loc 1 312 0
 617 01ba 2022     		movs	r2, #32
 618 01bc 83F82222 		strb	r2, [r3, #546]
 313:Generated_Source\PSoC5/cyfitter_cfg.c **** 	CyDelayUs(10u); /* Allow vref to settle before re-enabling PRES */
 619              		.loc 1 313 0
 620 01c0 4022     		movs	r2, #64
 621 01c2 83F85722 		strb	r2, [r3, #599]
 314:Generated_Source\PSoC5/cyfitter_cfg.c **** 	CY_SET_XTND_REG8((void CYFAR *)(CYREG_RESET_CR5), (cr5));
 622              		.loc 1 314 0
 623 01c6 FFF7FEFF 		bl	CyDelayUs
 624              	.LVL46:
 317:Generated_Source\PSoC5/cyfitter_cfg.c **** }
 625              		.loc 1 317 0
 626 01ca 204B     		ldr	r3, .L30+100
 315:Generated_Source\PSoC5/cyfitter_cfg.c **** 	CY_SET_XTND_REG8((void CYFAR *)(CYREG_RESET_CR4), (cr4));
 627              		.loc 1 315 0
 628 01cc 88F80060 		strb	r6, [r8]
 317:Generated_Source\PSoC5/cyfitter_cfg.c **** }
 629              		.loc 1 317 0
 630 01d0 4422     		movs	r2, #68
 316:Generated_Source\PSoC5/cyfitter_cfg.c **** 	CY_SET_XTND_REG8((void CYFAR *)CYREG_PUMP_CR0, 0x44u);
 631              		.loc 1 316 0
 632 01d2 3D70     		strb	r5, [r7]
 633              	.LBE100:
 634              	.LBE108:
 635              	.LBB109:
 636              	.LBB110:
  86:Generated_Source\PSoC5/cyfitter_cfg.c **** }
 637              		.loc 1 86 0
 638 01d4 1E4D     		ldr	r5, .L30+104
 639              	.LVL47:
 640              	.LBE110:
 641              	.LBE109:
 642              	.LBB112:
 643              	.LBB101:
ARM GAS  C:\Users\valer\AppData\Local\Temp\ccNDDXY6.s 			page 23


 317:Generated_Source\PSoC5/cyfitter_cfg.c **** }
 644              		.loc 1 317 0
 645 01d6 1A70     		strb	r2, [r3]
 646              	.LVL48:
 647              	.LBE101:
 648              	.LBE112:
 649              	.LBB113:
 650              	.LBB111:
  86:Generated_Source\PSoC5/cyfitter_cfg.c **** }
 651              		.loc 1 86 0
 652 01d8 94E80F00 		ldmia	r4, {r0, r1, r2, r3}
 653 01dc 07C5     		stmia	r5!, {r0, r1, r2}
 654 01de 2B80     		strh	r3, [r5]	@ movhi
 655              	.LVL49:
 656 01e0 BDE8F081 		pop	{r4, r5, r6, r7, r8, pc}
 657              	.LVL50:
 658              	.L20:
 659 01e4 FEE7     		b	.L20
 660              	.L31:
 661 01e6 00BF     		.align	2
 662              	.L30:
 663 01e8 E8460040 		.word	1073759976
 664 01ec 00000000 		.word	.LANCHOR0
 665 01f0 D8020048 		.word	1207960280
 666 01f4 00180140 		.word	1073813504
 667 01f8 58000048 		.word	1207959640
 668 01fc FCFFFF47 		.word	1207959548
 669 0200 03500140 		.word	1073827843
 670 0204 A0430040 		.word	1073759136
 671 0208 C0510040 		.word	1073762752
 672 020c 25420040 		.word	1073758757
 673 0210 58030048 		.word	1207960408
 674 0214 12510040 		.word	1073762578
 675 0218 22430040 		.word	1073759010
 676 021c 00480040 		.word	1073760256
 677 0220 00410040 		.word	1073758464
 678 0224 08010049 		.word	1224737032
 679 0228 A1460040 		.word	1073759905
 680 022c 22420040 		.word	1073758754
 681 0230 04400040 		.word	1073758212
 682 0234 06400040 		.word	1073758214
 683 0238 A2430040 		.word	1073759138
 684 023c F8460040 		.word	1073759992
 685 0240 CF010049 		.word	1224737231
 686 0244 6E580040 		.word	1073764462
 687 0248 01590040 		.word	1073764609
 688 024c 76580040 		.word	1073764470
 689 0250 B0430040 		.word	1073759152
 690 0254 F9460040 		.word	1073759993
 691              	.LBE111:
 692              	.LBE113:
 693              		.cfi_endproc
 694              	.LFE10:
 695              		.size	cyfitter_cfg, .-cyfitter_cfg
 696              		.global	Pot_Values__maskTable
 697              		.global	Pot_Values__addrTable
 698              		.section	.rodata
ARM GAS  C:\Users\valer\AppData\Local\Temp\ccNDDXY6.s 			page 24


 699              		.align	2
 700              		.set	.LANCHOR0,. + 0
 701              		.type	Pot_Values__addrTable, %object
 702              		.size	Pot_Values__addrTable, 24
 703              	Pot_Values__addrTable:
 704 0000 0D510040 		.word	1073762573
 705 0004 205B0040 		.word	1073765152
 706 0008 0D510040 		.word	1073762573
 707 000c 205B0040 		.word	1073765152
 708 0010 3D510040 		.word	1073762621
 709 0014 205B0040 		.word	1073765152
 710              		.type	Pot_Values__maskTable, %object
 711              		.size	Pot_Values__maskTable, 6
 712              	Pot_Values__maskTable:
 713 0018 01       		.byte	1
 714 0019 10       		.byte	16
 715 001a 02       		.byte	2
 716 001b 20       		.byte	32
 717 001c 40       		.byte	64
 718 001d 40       		.byte	64
 719              		.type	cfg_memset_list.5034, %object
 720              		.size	cfg_memset_list.5034, 54
 721              	cfg_memset_list.5034:
 722 001e 20510040 		.4byte	1073762592
 723 0022 1000     		.2byte	16
 724 0024 40510040 		.4byte	1073762624
 725 0028 3000     		.2byte	48
 726 002a F0510040 		.4byte	1073762800
 727 002e 1000     		.2byte	16
 728 0030 00000140 		.4byte	1073807360
 729 0034 0010     		.2byte	4096
 730 0036 00140140 		.4byte	1073812480
 731 003a 0004     		.2byte	1024
 732 003c 80180140 		.4byte	1073813632
 733 0040 8003     		.2byte	896
 734 0042 00400140 		.4byte	1073823744
 735 0046 000A     		.2byte	2560
 736 0048 004C0140 		.4byte	1073826816
 737 004c 0002     		.2byte	512
 738 004e 00500140 		.4byte	1073827840
 739 0052 2000     		.2byte	32
 740              		.text
 741              	.Letext0:
 742              		.file 2 "c:\\program files (x86)\\cypress\\psoc creator\\4.2\\psoc creator\\import\\gnu\\arm\\5.4.
 743              		.file 3 "Generated_Source\\PSoC5\\cytypes.h"
 744              		.file 4 "Generated_Source\\PSoC5\\CyLib.h"