ARM GAS  C:\Users\valer\AppData\Local\Temp\ccLczh3x.s 			page 1


   1              		.syntax unified
   2              		.cpu cortex-m3
   3              		.fpu softvfp
   4              		.eabi_attribute 20, 1
   5              		.eabi_attribute 21, 1
   6              		.eabi_attribute 23, 3
   7              		.eabi_attribute 24, 1
   8              		.eabi_attribute 25, 1
   9              		.eabi_attribute 26, 1
  10              		.eabi_attribute 30, 4
  11              		.eabi_attribute 34, 1
  12              		.eabi_attribute 18, 4
  13              		.thumb
  14              		.syntax unified
  15              		.file	"main.c"
  16              		.text
  17              	.Ltext0:
  18              		.cfi_sections	.debug_frame
  19              		.section	.text.send,"ax",%progbits
  20              		.align	1
  21              		.global	send
  22              		.thumb
  23              		.thumb_func
  24              		.type	send, %function
  25              	send:
  26              	.LFB64:
  27              		.file 1 "main.c"
   1:main.c        **** 
   2:main.c        **** #include <project.h>
   3:main.c        **** #include <stdbool.h>
   4:main.c        **** 
   5:main.c        **** void send();
   6:main.c        **** void update();
   7:main.c        **** 
   8:main.c        ****     uint8 ch;
   9:main.c        ****     char8 testString;
  10:main.c        **** 
  11:main.c        ****     int16 Pot_1_Val;
  12:main.c        ****     int16 Pot_2_Val;
  13:main.c        ****     int16 Pot_3_Val;
  14:main.c        **** 
  15:main.c        **** int main(void)
  16:main.c        **** {
  17:main.c        ****     CyGlobalIntEnable; /* Enable global interrupts. */
  18:main.c        ****     
  19:main.c        ****     //multiplexer for the three potentiometers. not enough ADC ports so using three ports and multi
  20:main.c        ****     Pot_Values_Start();
  21:main.c        ****     ADC_SAR_1_Start();
  22:main.c        **** 
  23:main.c        ****     /* Start SCB UART TX+RX operation */
  24:main.c        ****     UART_Start();
  25:main.c        ****     
  26:main.c        ****     //this will begin the process of checking to see if you move the arm 
  27:main.c        ****     update();
  28:main.c        **** }
  29:main.c        **** 
  30:main.c        **** 
ARM GAS  C:\Users\valer\AppData\Local\Temp\ccLczh3x.s 			page 2


  31:main.c        **** void send(int16 valueArray[])
  32:main.c        **** {
  28              		.loc 1 32 0
  29              		.cfi_startproc
  30              		@ args = 0, pretend = 0, frame = 0
  31              		@ frame_needed = 0, uses_anonymous_args = 0
  32              	.LVL0:
  33 0000 10B5     		push	{r4, lr}
  34              		.cfi_def_cfa_offset 8
  35              		.cfi_offset 4, -8
  36              		.cfi_offset 14, -4
  33:main.c        ****     //this will send the values everytime they change and then it'll send you back to checking
  34:main.c        ****     uint8 sendArray[3];
  35:main.c        ****     
  36:main.c        ****     for(int i = 0; i<3;i++)
  37:main.c        ****     {
  38:main.c        ****         sendArray[i] = valueArray[i];
  39:main.c        ****     }
  40:main.c        ****     
  41:main.c        ****     
  42:main.c        ****     
  43:main.c        ****     /* Transmit array of numbers through UART TX Line */
  44:main.c        ****     //UART_PutArray(sendArray, 3);
  45:main.c        ****     UART_PutString("123");
  37              		.loc 1 45 0
  38 0002 0648     		ldr	r0, .L7
  39              	.LVL1:
  40 0004 FFF7FEFF 		bl	UART_PutString
  41              	.LVL2:
  46:main.c        ****     //might wanna change this for loop into one that goes through only all of the bytes being sent
  47:main.c        ****     for(;;)
  48:main.c        ****     {
  49:main.c        ****         ch = UART_GetChar();
  42              		.loc 1 49 0
  43 0008 054C     		ldr	r4, .L7+4
  44              	.L2:
  45 000a FFF7FEFF 		bl	UART_GetChar
  46              	.LVL3:
  47 000e 2070     		strb	r0, [r4]
  50:main.c        ****         //update();
  51:main.c        ****         if(0u != ch)
  48              		.loc 1 51 0
  49 0010 0028     		cmp	r0, #0
  50 0012 FAD0     		beq	.L2
  52:main.c        ****         {
  53:main.c        ****            UART_PutChar(ch); 
  51              		.loc 1 53 0
  52 0014 FFF7FEFF 		bl	UART_PutChar
  53              	.LVL4:
  54 0018 F7E7     		b	.L2
  55              	.L8:
  56 001a 00BF     		.align	2
  57              	.L7:
  58 001c 00000000 		.word	.LC0
  59 0020 00000000 		.word	ch
  60              		.cfi_endproc
  61              	.LFE64:
ARM GAS  C:\Users\valer\AppData\Local\Temp\ccLczh3x.s 			page 3


  62              		.size	send, .-send
  63              		.section	.text.update,"ax",%progbits
  64              		.align	1
  65              		.global	update
  66              		.thumb
  67              		.thumb_func
  68              		.type	update, %function
  69              	update:
  70              	.LFB65:
  54:main.c        ****         
  55:main.c        ****           //go back to updating after this i guess? this might cut the connection short tho idk
  56:main.c        ****             
  57:main.c        ****         }
  58:main.c        ****     }
  59:main.c        ****     
  60:main.c        ****     
  61:main.c        **** }
  62:main.c        **** 
  63:main.c        **** void update()
  64:main.c        **** {
  71              		.loc 1 64 0
  72              		.cfi_startproc
  73              		@ args = 0, pretend = 0, frame = 8
  74              		@ frame_needed = 0, uses_anonymous_args = 0
  75              	.LVL5:
  76 0000 07B5     		push	{r0, r1, r2, lr}
  77              		.cfi_def_cfa_offset 16
  78              		.cfi_offset 14, -4
  79              	.LBB2:
  65:main.c        ****     //this will always be updating and when you change the values it'll send them
  66:main.c        ****     int16 valueArray[3];
  67:main.c        **** 
  68:main.c        ****     int16 temp2 = Pot_2_Val;
  69:main.c        ****     int16 temp3 = Pot_3_Val;
  70:main.c        ****     
  71:main.c        ****     for(;;)
  72:main.c        ****     {
  73:main.c        ****     int16 temp1 = Pot_1_Val;
  74:main.c        ****         
  75:main.c        ****     Pot_Values_Select(0);
  80              		.loc 1 75 0
  81 0002 0020     		movs	r0, #0
  82 0004 FFF7FEFF 		bl	Pot_Values_Select
  83              	.LVL6:
  76:main.c        ****     CyDelay(25);
  84              		.loc 1 76 0
  85 0008 1920     		movs	r0, #25
  86 000a FFF7FEFF 		bl	CyDelay
  87              	.LVL7:
  77:main.c        ****     ADC_SAR_1_StartConvert();
  88              		.loc 1 77 0
  89 000e FFF7FEFF 		bl	ADC_SAR_1_StartConvert
  90              	.LVL8:
  78:main.c        ****     ADC_SAR_1_IsEndConversion(ADC_SAR_1_WAIT_FOR_RESULT);
  91              		.loc 1 78 0
  92 0012 0020     		movs	r0, #0
  93 0014 FFF7FEFF 		bl	ADC_SAR_1_IsEndConversion
ARM GAS  C:\Users\valer\AppData\Local\Temp\ccLczh3x.s 			page 4


  94              	.LVL9:
  79:main.c        ****     Pot_1_Val = ADC_SAR_1_GetResult16();
  95              		.loc 1 79 0
  96 0018 FFF7FEFF 		bl	ADC_SAR_1_GetResult16
  97              	.LVL10:
  98 001c 034B     		ldr	r3, .L10
  99 001e 1880     		strh	r0, [r3]	@ movhi
  80:main.c        ****     valueArray[0] = Pot_1_Val;
 100              		.loc 1 80 0
 101 0020 02AB     		add	r3, sp, #8
 102 0022 23F8080D 		strh	r0, [r3, #-8]!	@ movhi
 103              	.LVL11:
  81:main.c        ****    /* 
  82:main.c        ****     Pot_Values_Select(1);
  83:main.c        ****     CyDelay(25);
  84:main.c        ****     ADC_SAR_1_StartConvert();
  85:main.c        ****     ADC_SAR_1_IsEndConversion(ADC_SAR_1_WAIT_FOR_RESULT);
  86:main.c        ****     Pot_2_Val = ADC_SAR_1_GetResult16();
  87:main.c        ****     valueArray[1] = Pot_2_Val;
  88:main.c        ****     
  89:main.c        ****     
  90:main.c        ****     Pot_Values_Select(2);
  91:main.c        ****     CyDelay(25);
  92:main.c        ****     ADC_SAR_1_StartConvert();
  93:main.c        ****     ADC_SAR_1_IsEndConversion(ADC_SAR_1_WAIT_FOR_RESULT);
  94:main.c        ****     Pot_3_Val = ADC_SAR_1_GetResult16(); 
  95:main.c        ****     valueArray[2] = Pot_3_Val;
  96:main.c        ****     */
  97:main.c        ****     //if(temp1 != Pot_1_Val || temp2 != Pot_2_Val || temp3 != Pot_3_Val)
  98:main.c        ****     //{
  99:main.c        ****         //check if any of the values have changed then send if yes
 100:main.c        ****     int16 upperTolerance = 10;
 101:main.c        ****     int16 lowerTolerance = -10;
 102:main.c        ****     
 103:main.c        ****     //if(Pot_1_Val != 0 && (Pot_1_Val < (temp1 + upperTolerance) && Pot_1_Val > (temp1 + lowerToler
 104:main.c        ****     //{  
 105:main.c        ****         send(valueArray);
 104              		.loc 1 105 0
 105 0026 1846     		mov	r0, r3
 106 0028 FFF7FEFF 		bl	send
 107              	.LVL12:
 108              	.L11:
 109              		.align	2
 110              	.L10:
 111 002c 00000000 		.word	Pot_1_Val
 112              	.LBE2:
 113              		.cfi_endproc
 114              	.LFE65:
 115              		.size	update, .-update
 116              		.section	.text.startup.main,"ax",%progbits
 117              		.align	1
 118              		.global	main
 119              		.thumb
 120              		.thumb_func
 121              		.type	main, %function
 122              	main:
 123              	.LFB63:
ARM GAS  C:\Users\valer\AppData\Local\Temp\ccLczh3x.s 			page 5


  16:main.c        ****     CyGlobalIntEnable; /* Enable global interrupts. */
 124              		.loc 1 16 0
 125              		.cfi_startproc
 126              		@ Volatile: function does not return.
 127              		@ args = 0, pretend = 0, frame = 0
 128              		@ frame_needed = 0, uses_anonymous_args = 0
 129 0000 08B5     		push	{r3, lr}
 130              		.cfi_def_cfa_offset 8
 131              		.cfi_offset 3, -8
 132              		.cfi_offset 14, -4
  17:main.c        ****     
 133              		.loc 1 17 0
 134              		.syntax unified
 135              	@ 17 "main.c" 1
 136 0002 62B6     		CPSIE   i
 137              	@ 0 "" 2
  20:main.c        ****     ADC_SAR_1_Start();
 138              		.loc 1 20 0
 139              		.thumb
 140              		.syntax unified
 141 0004 FFF7FEFF 		bl	Pot_Values_Start
 142              	.LVL13:
  21:main.c        **** 
 143              		.loc 1 21 0
 144 0008 FFF7FEFF 		bl	ADC_SAR_1_Start
 145              	.LVL14:
  24:main.c        ****     
 146              		.loc 1 24 0
 147 000c FFF7FEFF 		bl	UART_Start
 148              	.LVL15:
  27:main.c        **** }
 149              		.loc 1 27 0
 150 0010 FFF7FEFF 		bl	update
 151              	.LVL16:
 152              		.cfi_endproc
 153              	.LFE63:
 154              		.size	main, .-main
 155              		.comm	Pot_3_Val,2,2
 156              		.comm	Pot_2_Val,2,2
 157              		.comm	Pot_1_Val,2,2
 158              		.comm	testString,1,1
 159              		.comm	ch,1,1
 160              		.section	.rodata.str1.1,"aMS",%progbits,1
 161              	.LC0:
 162 0000 31323300 		.ascii	"123\000"
 163              		.text
 164              	.Letext0:
 165              		.file 2 "c:\\program files (x86)\\cypress\\psoc creator\\4.2\\psoc creator\\import\\gnu\\arm\\5.4.
 166              		.file 3 "c:\\program files (x86)\\cypress\\psoc creator\\4.2\\psoc creator\\import\\gnu\\arm\\5.4.
 167              		.file 4 "Generated_Source\\PSoC5/cytypes.h"
 168              		.file 5 "Generated_Source\\PSoC5/core_cm3.h"
 169              		.file 6 "Generated_Source\\PSoC5/UART.h"
 170              		.file 7 "Generated_Source\\PSoC5/Pot_Values.h"
 171              		.file 8 "Generated_Source\\PSoC5/CyLib.h"
 172              		.file 9 "Generated_Source\\PSoC5/ADC_SAR_1.h"