ARM GAS  C:\Users\valer\AppData\Local\Temp\ccsjZDIz.s 			page 1


   1              		.syntax unified
   2              		.cpu cortex-m3
   3              		.fpu softvfp
   4              		.eabi_attribute 20, 1
   5              		.eabi_attribute 21, 1
   6              		.eabi_attribute 23, 3
   7              		.eabi_attribute 24, 1
   8              		.eabi_attribute 25, 1
   9              		.eabi_attribute 26, 1
  10              		.eabi_attribute 30, 4
  11              		.eabi_attribute 34, 1
  12              		.eabi_attribute 18, 4
  13              		.thumb
  14              		.syntax unified
  15              		.file	"UART.c"
  16              		.text
  17              	.Ltext0:
  18              		.cfi_sections	.debug_frame
  19              		.section	.text.UART_Init,"ax",%progbits
  20              		.align	1
  21              		.global	UART_Init
  22              		.thumb
  23              		.thumb_func
  24              		.type	UART_Init, %function
  25              	UART_Init:
  26              	.LFB1:
  27              		.file 1 "Generated_Source\\PSoC5\\UART.c"
   1:Generated_Source\PSoC5/UART.c **** /*******************************************************************************
   2:Generated_Source\PSoC5/UART.c **** * File Name: UART.c
   3:Generated_Source\PSoC5/UART.c **** * Version 2.50
   4:Generated_Source\PSoC5/UART.c **** *
   5:Generated_Source\PSoC5/UART.c **** * Description:
   6:Generated_Source\PSoC5/UART.c **** *  This file provides all API functionality of the UART component
   7:Generated_Source\PSoC5/UART.c **** *
   8:Generated_Source\PSoC5/UART.c **** * Note:
   9:Generated_Source\PSoC5/UART.c **** *
  10:Generated_Source\PSoC5/UART.c **** ********************************************************************************
  11:Generated_Source\PSoC5/UART.c **** * Copyright 2008-2015, Cypress Semiconductor Corporation.  All rights reserved.
  12:Generated_Source\PSoC5/UART.c **** * You may use this file only in accordance with the license, terms, conditions,
  13:Generated_Source\PSoC5/UART.c **** * disclaimers, and limitations in the end user license agreement accompanying
  14:Generated_Source\PSoC5/UART.c **** * the software package with which this file was provided.
  15:Generated_Source\PSoC5/UART.c **** *******************************************************************************/
  16:Generated_Source\PSoC5/UART.c **** 
  17:Generated_Source\PSoC5/UART.c **** #include "UART.h"
  18:Generated_Source\PSoC5/UART.c **** #if (UART_INTERNAL_CLOCK_USED)
  19:Generated_Source\PSoC5/UART.c ****     #include "UART_IntClock.h"
  20:Generated_Source\PSoC5/UART.c **** #endif /* End UART_INTERNAL_CLOCK_USED */
  21:Generated_Source\PSoC5/UART.c **** 
  22:Generated_Source\PSoC5/UART.c **** 
  23:Generated_Source\PSoC5/UART.c **** /***************************************
  24:Generated_Source\PSoC5/UART.c **** * Global data allocation
  25:Generated_Source\PSoC5/UART.c **** ***************************************/
  26:Generated_Source\PSoC5/UART.c **** 
  27:Generated_Source\PSoC5/UART.c **** uint8 UART_initVar = 0u;
  28:Generated_Source\PSoC5/UART.c **** 
  29:Generated_Source\PSoC5/UART.c **** #if (UART_TX_INTERRUPT_ENABLED && UART_TX_ENABLED)
  30:Generated_Source\PSoC5/UART.c ****     volatile uint8 UART_txBuffer[UART_TX_BUFFER_SIZE];
ARM GAS  C:\Users\valer\AppData\Local\Temp\ccsjZDIz.s 			page 2


  31:Generated_Source\PSoC5/UART.c ****     volatile uint8 UART_txBufferRead = 0u;
  32:Generated_Source\PSoC5/UART.c ****     uint8 UART_txBufferWrite = 0u;
  33:Generated_Source\PSoC5/UART.c **** #endif /* (UART_TX_INTERRUPT_ENABLED && UART_TX_ENABLED) */
  34:Generated_Source\PSoC5/UART.c **** 
  35:Generated_Source\PSoC5/UART.c **** #if (UART_RX_INTERRUPT_ENABLED && (UART_RX_ENABLED || UART_HD_ENABLED))
  36:Generated_Source\PSoC5/UART.c ****     uint8 UART_errorStatus = 0u;
  37:Generated_Source\PSoC5/UART.c ****     volatile uint8 UART_rxBuffer[UART_RX_BUFFER_SIZE];
  38:Generated_Source\PSoC5/UART.c ****     volatile uint8 UART_rxBufferRead  = 0u;
  39:Generated_Source\PSoC5/UART.c ****     volatile uint8 UART_rxBufferWrite = 0u;
  40:Generated_Source\PSoC5/UART.c ****     volatile uint8 UART_rxBufferLoopDetect = 0u;
  41:Generated_Source\PSoC5/UART.c ****     volatile uint8 UART_rxBufferOverflow   = 0u;
  42:Generated_Source\PSoC5/UART.c ****     #if (UART_RXHW_ADDRESS_ENABLED)
  43:Generated_Source\PSoC5/UART.c ****         volatile uint8 UART_rxAddressMode = UART_RX_ADDRESS_MODE;
  44:Generated_Source\PSoC5/UART.c ****         volatile uint8 UART_rxAddressDetected = 0u;
  45:Generated_Source\PSoC5/UART.c ****     #endif /* (UART_RXHW_ADDRESS_ENABLED) */
  46:Generated_Source\PSoC5/UART.c **** #endif /* (UART_RX_INTERRUPT_ENABLED && (UART_RX_ENABLED || UART_HD_ENABLED)) */
  47:Generated_Source\PSoC5/UART.c **** 
  48:Generated_Source\PSoC5/UART.c **** 
  49:Generated_Source\PSoC5/UART.c **** /*******************************************************************************
  50:Generated_Source\PSoC5/UART.c **** * Function Name: UART_Start
  51:Generated_Source\PSoC5/UART.c **** ********************************************************************************
  52:Generated_Source\PSoC5/UART.c **** *
  53:Generated_Source\PSoC5/UART.c **** * Summary:
  54:Generated_Source\PSoC5/UART.c **** *  This is the preferred method to begin component operation.
  55:Generated_Source\PSoC5/UART.c **** *  UART_Start() sets the initVar variable, calls the
  56:Generated_Source\PSoC5/UART.c **** *  UART_Init() function, and then calls the
  57:Generated_Source\PSoC5/UART.c **** *  UART_Enable() function.
  58:Generated_Source\PSoC5/UART.c **** *
  59:Generated_Source\PSoC5/UART.c **** * Parameters:
  60:Generated_Source\PSoC5/UART.c **** *  None.
  61:Generated_Source\PSoC5/UART.c **** *
  62:Generated_Source\PSoC5/UART.c **** * Return:
  63:Generated_Source\PSoC5/UART.c **** *  None.
  64:Generated_Source\PSoC5/UART.c **** *
  65:Generated_Source\PSoC5/UART.c **** * Global variables:
  66:Generated_Source\PSoC5/UART.c **** *  The UART_intiVar variable is used to indicate initial
  67:Generated_Source\PSoC5/UART.c **** *  configuration of this component. The variable is initialized to zero (0u)
  68:Generated_Source\PSoC5/UART.c **** *  and set to one (1u) the first time UART_Start() is called. This
  69:Generated_Source\PSoC5/UART.c **** *  allows for component initialization without re-initialization in all
  70:Generated_Source\PSoC5/UART.c **** *  subsequent calls to the UART_Start() routine.
  71:Generated_Source\PSoC5/UART.c **** *
  72:Generated_Source\PSoC5/UART.c **** * Reentrant:
  73:Generated_Source\PSoC5/UART.c **** *  No.
  74:Generated_Source\PSoC5/UART.c **** *
  75:Generated_Source\PSoC5/UART.c **** *******************************************************************************/
  76:Generated_Source\PSoC5/UART.c **** void UART_Start(void) 
  77:Generated_Source\PSoC5/UART.c **** {
  78:Generated_Source\PSoC5/UART.c ****     /* If not initialized then initialize all required hardware and software */
  79:Generated_Source\PSoC5/UART.c ****     if(UART_initVar == 0u)
  80:Generated_Source\PSoC5/UART.c ****     {
  81:Generated_Source\PSoC5/UART.c ****         UART_Init();
  82:Generated_Source\PSoC5/UART.c ****         UART_initVar = 1u;
  83:Generated_Source\PSoC5/UART.c ****     }
  84:Generated_Source\PSoC5/UART.c **** 
  85:Generated_Source\PSoC5/UART.c ****     UART_Enable();
  86:Generated_Source\PSoC5/UART.c **** }
  87:Generated_Source\PSoC5/UART.c **** 
ARM GAS  C:\Users\valer\AppData\Local\Temp\ccsjZDIz.s 			page 3


  88:Generated_Source\PSoC5/UART.c **** 
  89:Generated_Source\PSoC5/UART.c **** /*******************************************************************************
  90:Generated_Source\PSoC5/UART.c **** * Function Name: UART_Init
  91:Generated_Source\PSoC5/UART.c **** ********************************************************************************
  92:Generated_Source\PSoC5/UART.c **** *
  93:Generated_Source\PSoC5/UART.c **** * Summary:
  94:Generated_Source\PSoC5/UART.c **** *  Initializes or restores the component according to the customizer Configure
  95:Generated_Source\PSoC5/UART.c **** *  dialog settings. It is not necessary to call UART_Init() because
  96:Generated_Source\PSoC5/UART.c **** *  the UART_Start() API calls this function and is the preferred
  97:Generated_Source\PSoC5/UART.c **** *  method to begin component operation.
  98:Generated_Source\PSoC5/UART.c **** *
  99:Generated_Source\PSoC5/UART.c **** * Parameters:
 100:Generated_Source\PSoC5/UART.c **** *  None.
 101:Generated_Source\PSoC5/UART.c **** *
 102:Generated_Source\PSoC5/UART.c **** * Return:
 103:Generated_Source\PSoC5/UART.c **** *  None.
 104:Generated_Source\PSoC5/UART.c **** *
 105:Generated_Source\PSoC5/UART.c **** *******************************************************************************/
 106:Generated_Source\PSoC5/UART.c **** void UART_Init(void) 
 107:Generated_Source\PSoC5/UART.c **** {
  28              		.loc 1 107 0
  29              		.cfi_startproc
  30              		@ args = 0, pretend = 0, frame = 0
  31              		@ frame_needed = 0, uses_anonymous_args = 0
  32 0000 08B5     		push	{r3, lr}
  33              		.cfi_def_cfa_offset 8
  34              		.cfi_offset 3, -8
  35              		.cfi_offset 14, -4
 108:Generated_Source\PSoC5/UART.c ****     #if(UART_RX_ENABLED || UART_HD_ENABLED)
 109:Generated_Source\PSoC5/UART.c **** 
 110:Generated_Source\PSoC5/UART.c ****         #if (UART_RX_INTERRUPT_ENABLED)
 111:Generated_Source\PSoC5/UART.c ****             /* Set RX interrupt vector and priority */
 112:Generated_Source\PSoC5/UART.c ****             (void) CyIntSetVector(UART_RX_VECT_NUM, &UART_RXISR);
  36              		.loc 1 112 0
  37 0002 1049     		ldr	r1, .L2
  38 0004 0120     		movs	r0, #1
  39 0006 FFF7FEFF 		bl	CyIntSetVector
  40              	.LVL0:
 113:Generated_Source\PSoC5/UART.c ****             CyIntSetPriority(UART_RX_VECT_NUM, UART_RX_PRIOR_NUM);
  41              		.loc 1 113 0
  42 000a 0721     		movs	r1, #7
  43 000c 0120     		movs	r0, #1
  44 000e FFF7FEFF 		bl	CyIntSetPriority
  45              	.LVL1:
 114:Generated_Source\PSoC5/UART.c ****             UART_errorStatus = 0u;
  46              		.loc 1 114 0
  47 0012 0D4B     		ldr	r3, .L2+4
  48 0014 0022     		movs	r2, #0
  49 0016 1A70     		strb	r2, [r3]
 115:Generated_Source\PSoC5/UART.c ****         #endif /* (UART_RX_INTERRUPT_ENABLED) */
 116:Generated_Source\PSoC5/UART.c **** 
 117:Generated_Source\PSoC5/UART.c ****         #if (UART_RXHW_ADDRESS_ENABLED)
 118:Generated_Source\PSoC5/UART.c ****             UART_SetRxAddressMode(UART_RX_ADDRESS_MODE);
 119:Generated_Source\PSoC5/UART.c ****             UART_SetRxAddress1(UART_RX_HW_ADDRESS1);
 120:Generated_Source\PSoC5/UART.c ****             UART_SetRxAddress2(UART_RX_HW_ADDRESS2);
 121:Generated_Source\PSoC5/UART.c ****         #endif /* End UART_RXHW_ADDRESS_ENABLED */
 122:Generated_Source\PSoC5/UART.c **** 
ARM GAS  C:\Users\valer\AppData\Local\Temp\ccsjZDIz.s 			page 4


 123:Generated_Source\PSoC5/UART.c ****         /* Init Count7 period */
 124:Generated_Source\PSoC5/UART.c ****         UART_RXBITCTR_PERIOD_REG = UART_RXBITCTR_INIT;
  50              		.loc 1 124 0
  51 0018 0C4B     		ldr	r3, .L2+8
  52 001a 7222     		movs	r2, #114
  53 001c 1A70     		strb	r2, [r3]
 125:Generated_Source\PSoC5/UART.c ****         /* Configure the Initial RX interrupt mask */
 126:Generated_Source\PSoC5/UART.c ****         UART_RXSTATUS_MASK_REG  = UART_INIT_RX_INTERRUPTS_MASK;
  54              		.loc 1 126 0
  55 001e 2022     		movs	r2, #32
  56 0020 5A70     		strb	r2, [r3, #1]
 127:Generated_Source\PSoC5/UART.c ****     #endif /* End UART_RX_ENABLED || UART_HD_ENABLED*/
 128:Generated_Source\PSoC5/UART.c **** 
 129:Generated_Source\PSoC5/UART.c ****     #if(UART_TX_ENABLED)
 130:Generated_Source\PSoC5/UART.c ****         #if (UART_TX_INTERRUPT_ENABLED)
 131:Generated_Source\PSoC5/UART.c ****             /* Set TX interrupt vector and priority */
 132:Generated_Source\PSoC5/UART.c ****             (void) CyIntSetVector(UART_TX_VECT_NUM, &UART_TXISR);
  57              		.loc 1 132 0
  58 0022 0B49     		ldr	r1, .L2+12
  59 0024 0220     		movs	r0, #2
  60 0026 FFF7FEFF 		bl	CyIntSetVector
  61              	.LVL2:
 133:Generated_Source\PSoC5/UART.c ****             CyIntSetPriority(UART_TX_VECT_NUM, UART_TX_PRIOR_NUM);
  62              		.loc 1 133 0
  63 002a 0721     		movs	r1, #7
  64 002c 0220     		movs	r0, #2
  65 002e FFF7FEFF 		bl	CyIntSetPriority
  66              	.LVL3:
 134:Generated_Source\PSoC5/UART.c ****         #endif /* (UART_TX_INTERRUPT_ENABLED) */
 135:Generated_Source\PSoC5/UART.c **** 
 136:Generated_Source\PSoC5/UART.c ****         /* Write Counter Value for TX Bit Clk Generator*/
 137:Generated_Source\PSoC5/UART.c ****         #if (UART_TXCLKGEN_DP)
 138:Generated_Source\PSoC5/UART.c ****             UART_TXBITCLKGEN_CTR_REG = UART_BIT_CENTER;
  67              		.loc 1 138 0
  68 0032 084B     		ldr	r3, .L2+16
  69 0034 0622     		movs	r2, #6
  70 0036 1A70     		strb	r2, [r3]
 139:Generated_Source\PSoC5/UART.c ****             UART_TXBITCLKTX_COMPLETE_REG = ((UART_NUMBER_OF_DATA_BITS +
  71              		.loc 1 139 0
  72 0038 4722     		movs	r2, #71
  73 003a 1A74     		strb	r2, [r3, #16]
 140:Generated_Source\PSoC5/UART.c ****                         UART_NUMBER_OF_START_BIT) * UART_OVER_SAMPLE_COUNT) - 1u;
 141:Generated_Source\PSoC5/UART.c ****         #else
 142:Generated_Source\PSoC5/UART.c ****             UART_TXBITCTR_PERIOD_REG = ((UART_NUMBER_OF_DATA_BITS +
 143:Generated_Source\PSoC5/UART.c ****                         UART_NUMBER_OF_START_BIT) * UART_OVER_SAMPLE_8) - 1u;
 144:Generated_Source\PSoC5/UART.c ****         #endif /* End UART_TXCLKGEN_DP */
 145:Generated_Source\PSoC5/UART.c **** 
 146:Generated_Source\PSoC5/UART.c ****         /* Configure the Initial TX interrupt mask */
 147:Generated_Source\PSoC5/UART.c ****         #if (UART_TX_INTERRUPT_ENABLED)
 148:Generated_Source\PSoC5/UART.c ****             UART_TXSTATUS_MASK_REG = UART_TX_STS_FIFO_EMPTY;
  74              		.loc 1 148 0
  75 003c 0222     		movs	r2, #2
  76 003e 83F86120 		strb	r2, [r3, #97]
  77 0042 08BD     		pop	{r3, pc}
  78              	.L3:
  79              		.align	2
  80              	.L2:
ARM GAS  C:\Users\valer\AppData\Local\Temp\ccsjZDIz.s 			page 5


  81 0044 00000000 		.word	UART_RXISR
  82 0048 00000000 		.word	.LANCHOR0
  83 004c 88650040 		.word	1073767816
  84 0050 00000000 		.word	UART_TXISR
  85 0054 2A650040 		.word	1073767722
  86              		.cfi_endproc
  87              	.LFE1:
  88              		.size	UART_Init, .-UART_Init
  89              		.section	.text.UART_Enable,"ax",%progbits
  90              		.align	1
  91              		.global	UART_Enable
  92              		.thumb
  93              		.thumb_func
  94              		.type	UART_Enable, %function
  95              	UART_Enable:
  96              	.LFB2:
 149:Generated_Source\PSoC5/UART.c ****         #else
 150:Generated_Source\PSoC5/UART.c ****             UART_TXSTATUS_MASK_REG = UART_INIT_TX_INTERRUPTS_MASK;
 151:Generated_Source\PSoC5/UART.c ****         #endif /*End UART_TX_INTERRUPT_ENABLED*/
 152:Generated_Source\PSoC5/UART.c **** 
 153:Generated_Source\PSoC5/UART.c ****     #endif /* End UART_TX_ENABLED */
 154:Generated_Source\PSoC5/UART.c **** 
 155:Generated_Source\PSoC5/UART.c ****     #if(UART_PARITY_TYPE_SW)  /* Write Parity to Control Register */
 156:Generated_Source\PSoC5/UART.c ****         UART_WriteControlRegister( \
 157:Generated_Source\PSoC5/UART.c ****             (UART_ReadControlRegister() & (uint8)~UART_CTRL_PARITY_TYPE_MASK) | \
 158:Generated_Source\PSoC5/UART.c ****             (uint8)(UART_PARITY_TYPE << UART_CTRL_PARITY_TYPE0_SHIFT) );
 159:Generated_Source\PSoC5/UART.c ****     #endif /* End UART_PARITY_TYPE_SW */
 160:Generated_Source\PSoC5/UART.c **** }
 161:Generated_Source\PSoC5/UART.c **** 
 162:Generated_Source\PSoC5/UART.c **** 
 163:Generated_Source\PSoC5/UART.c **** /*******************************************************************************
 164:Generated_Source\PSoC5/UART.c **** * Function Name: UART_Enable
 165:Generated_Source\PSoC5/UART.c **** ********************************************************************************
 166:Generated_Source\PSoC5/UART.c **** *
 167:Generated_Source\PSoC5/UART.c **** * Summary:
 168:Generated_Source\PSoC5/UART.c **** *  Activates the hardware and begins component operation. It is not necessary
 169:Generated_Source\PSoC5/UART.c **** *  to call UART_Enable() because the UART_Start() API
 170:Generated_Source\PSoC5/UART.c **** *  calls this function, which is the preferred method to begin component
 171:Generated_Source\PSoC5/UART.c **** *  operation.
 172:Generated_Source\PSoC5/UART.c **** 
 173:Generated_Source\PSoC5/UART.c **** * Parameters:
 174:Generated_Source\PSoC5/UART.c **** *  None.
 175:Generated_Source\PSoC5/UART.c **** *
 176:Generated_Source\PSoC5/UART.c **** * Return:
 177:Generated_Source\PSoC5/UART.c **** *  None.
 178:Generated_Source\PSoC5/UART.c **** *
 179:Generated_Source\PSoC5/UART.c **** * Global Variables:
 180:Generated_Source\PSoC5/UART.c **** *  UART_rxAddressDetected - set to initial state (0).
 181:Generated_Source\PSoC5/UART.c **** *
 182:Generated_Source\PSoC5/UART.c **** *******************************************************************************/
 183:Generated_Source\PSoC5/UART.c **** void UART_Enable(void) 
 184:Generated_Source\PSoC5/UART.c **** {
  97              		.loc 1 184 0
  98              		.cfi_startproc
  99              		@ args = 0, pretend = 0, frame = 0
 100              		@ frame_needed = 0, uses_anonymous_args = 0
 101 0000 10B5     		push	{r4, lr}
ARM GAS  C:\Users\valer\AppData\Local\Temp\ccsjZDIz.s 			page 6


 102              		.cfi_def_cfa_offset 8
 103              		.cfi_offset 4, -8
 104              		.cfi_offset 14, -4
 185:Generated_Source\PSoC5/UART.c ****     uint8 enableInterrupts;
 186:Generated_Source\PSoC5/UART.c ****     enableInterrupts = CyEnterCriticalSection();
 105              		.loc 1 186 0
 106 0002 FFF7FEFF 		bl	CyEnterCriticalSection
 107              	.LVL4:
 108 0006 0446     		mov	r4, r0
 109              	.LVL5:
 187:Generated_Source\PSoC5/UART.c **** 
 188:Generated_Source\PSoC5/UART.c ****     #if (UART_RX_ENABLED || UART_HD_ENABLED)
 189:Generated_Source\PSoC5/UART.c ****         /* RX Counter (Count7) Enable */
 190:Generated_Source\PSoC5/UART.c ****         UART_RXBITCTR_CONTROL_REG |= UART_CNTR_ENABLE;
 110              		.loc 1 190 0
 111 0008 0D4A     		ldr	r2, .L5
 191:Generated_Source\PSoC5/UART.c **** 
 192:Generated_Source\PSoC5/UART.c ****         /* Enable the RX Interrupt */
 193:Generated_Source\PSoC5/UART.c ****         UART_RXSTATUS_ACTL_REG  |= UART_INT_ENABLE;
 194:Generated_Source\PSoC5/UART.c **** 
 195:Generated_Source\PSoC5/UART.c ****         #if (UART_RX_INTERRUPT_ENABLED)
 196:Generated_Source\PSoC5/UART.c ****             UART_EnableRxInt();
 197:Generated_Source\PSoC5/UART.c **** 
 198:Generated_Source\PSoC5/UART.c ****             #if (UART_RXHW_ADDRESS_ENABLED)
 199:Generated_Source\PSoC5/UART.c ****                 UART_rxAddressDetected = 0u;
 200:Generated_Source\PSoC5/UART.c ****             #endif /* (UART_RXHW_ADDRESS_ENABLED) */
 201:Generated_Source\PSoC5/UART.c ****         #endif /* (UART_RX_INTERRUPT_ENABLED) */
 202:Generated_Source\PSoC5/UART.c ****     #endif /* (UART_RX_ENABLED || UART_HD_ENABLED) */
 203:Generated_Source\PSoC5/UART.c **** 
 204:Generated_Source\PSoC5/UART.c ****     #if(UART_TX_ENABLED)
 205:Generated_Source\PSoC5/UART.c ****         /* TX Counter (DP/Count7) Enable */
 206:Generated_Source\PSoC5/UART.c ****         #if(!UART_TXCLKGEN_DP)
 207:Generated_Source\PSoC5/UART.c ****             UART_TXBITCTR_CONTROL_REG |= UART_CNTR_ENABLE;
 208:Generated_Source\PSoC5/UART.c ****         #endif /* End UART_TXCLKGEN_DP */
 209:Generated_Source\PSoC5/UART.c **** 
 210:Generated_Source\PSoC5/UART.c ****         /* Enable the TX Interrupt */
 211:Generated_Source\PSoC5/UART.c ****         UART_TXSTATUS_ACTL_REG |= UART_INT_ENABLE;
 112              		.loc 1 211 0
 113 000a 0E49     		ldr	r1, .L5+4
 190:Generated_Source\PSoC5/UART.c **** 
 114              		.loc 1 190 0
 115 000c 1378     		ldrb	r3, [r2]	@ zero_extendqisi2
 116 000e 43F02003 		orr	r3, r3, #32
 117 0012 1370     		strb	r3, [r2]
 193:Generated_Source\PSoC5/UART.c **** 
 118              		.loc 1 193 0
 119 0014 5378     		ldrb	r3, [r2, #1]	@ zero_extendqisi2
 120 0016 43F01003 		orr	r3, r3, #16
 121 001a 5370     		strb	r3, [r2, #1]
 196:Generated_Source\PSoC5/UART.c **** 
 122              		.loc 1 196 0
 123 001c 0A4A     		ldr	r2, .L5+8
 124 001e 0223     		movs	r3, #2
 125 0020 1360     		str	r3, [r2]
 126              		.loc 1 211 0
 127 0022 0B78     		ldrb	r3, [r1]	@ zero_extendqisi2
 128 0024 43F01003 		orr	r3, r3, #16
ARM GAS  C:\Users\valer\AppData\Local\Temp\ccsjZDIz.s 			page 7


 129 0028 0B70     		strb	r3, [r1]
 212:Generated_Source\PSoC5/UART.c ****         #if (UART_TX_INTERRUPT_ENABLED)
 213:Generated_Source\PSoC5/UART.c ****             UART_ClearPendingTxInt(); /* Clear history of TX_NOT_EMPTY */
 130              		.loc 1 213 0
 131 002a 0849     		ldr	r1, .L5+12
 132 002c 0423     		movs	r3, #4
 133 002e 0B60     		str	r3, [r1]
 214:Generated_Source\PSoC5/UART.c ****             UART_EnableTxInt();
 134              		.loc 1 214 0
 135 0030 1360     		str	r3, [r2]
 215:Generated_Source\PSoC5/UART.c ****         #endif /* (UART_TX_INTERRUPT_ENABLED) */
 216:Generated_Source\PSoC5/UART.c ****      #endif /* (UART_TX_INTERRUPT_ENABLED) */
 217:Generated_Source\PSoC5/UART.c **** 
 218:Generated_Source\PSoC5/UART.c ****     #if (UART_INTERNAL_CLOCK_USED)
 219:Generated_Source\PSoC5/UART.c ****         UART_IntClock_Start();  /* Enable the clock */
 136              		.loc 1 219 0
 137 0032 FFF7FEFF 		bl	UART_IntClock_Start
 138              	.LVL6:
 220:Generated_Source\PSoC5/UART.c ****     #endif /* (UART_INTERNAL_CLOCK_USED) */
 221:Generated_Source\PSoC5/UART.c **** 
 222:Generated_Source\PSoC5/UART.c ****     CyExitCriticalSection(enableInterrupts);
 139              		.loc 1 222 0
 140 0036 2046     		mov	r0, r4
 223:Generated_Source\PSoC5/UART.c **** }
 141              		.loc 1 223 0
 142 0038 BDE81040 		pop	{r4, lr}
 143              		.cfi_restore 14
 144              		.cfi_restore 4
 145              		.cfi_def_cfa_offset 0
 146              	.LVL7:
 222:Generated_Source\PSoC5/UART.c **** }
 147              		.loc 1 222 0
 148 003c FFF7FEBF 		b	CyExitCriticalSection
 149              	.LVL8:
 150              	.L6:
 151              		.align	2
 152              	.L5:
 153 0040 98650040 		.word	1073767832
 154 0044 9B650040 		.word	1073767835
 155 0048 00E100E0 		.word	-536813312
 156 004c 80E200E0 		.word	-536812928
 157              		.cfi_endproc
 158              	.LFE2:
 159              		.size	UART_Enable, .-UART_Enable
 160              		.section	.text.UART_Start,"ax",%progbits
 161              		.align	1
 162              		.global	UART_Start
 163              		.thumb
 164              		.thumb_func
 165              		.type	UART_Start, %function
 166              	UART_Start:
 167              	.LFB0:
  77:Generated_Source\PSoC5/UART.c ****     /* If not initialized then initialize all required hardware and software */
 168              		.loc 1 77 0
 169              		.cfi_startproc
 170              		@ args = 0, pretend = 0, frame = 0
 171              		@ frame_needed = 0, uses_anonymous_args = 0
ARM GAS  C:\Users\valer\AppData\Local\Temp\ccsjZDIz.s 			page 8


 172 0000 10B5     		push	{r4, lr}
 173              		.cfi_def_cfa_offset 8
 174              		.cfi_offset 4, -8
 175              		.cfi_offset 14, -4
  79:Generated_Source\PSoC5/UART.c ****     {
 176              		.loc 1 79 0
 177 0002 054C     		ldr	r4, .L10
 178 0004 6378     		ldrb	r3, [r4, #1]	@ zero_extendqisi2
 179 0006 1BB9     		cbnz	r3, .L8
  81:Generated_Source\PSoC5/UART.c ****         UART_initVar = 1u;
 180              		.loc 1 81 0
 181 0008 FFF7FEFF 		bl	UART_Init
 182              	.LVL9:
  82:Generated_Source\PSoC5/UART.c ****     }
 183              		.loc 1 82 0
 184 000c 0123     		movs	r3, #1
 185 000e 6370     		strb	r3, [r4, #1]
 186              	.L8:
  86:Generated_Source\PSoC5/UART.c **** 
 187              		.loc 1 86 0
 188 0010 BDE81040 		pop	{r4, lr}
 189              		.cfi_restore 14
 190              		.cfi_restore 4
 191              		.cfi_def_cfa_offset 0
  85:Generated_Source\PSoC5/UART.c **** }
 192              		.loc 1 85 0
 193 0014 FFF7FEBF 		b	UART_Enable
 194              	.LVL10:
 195              	.L11:
 196              		.align	2
 197              	.L10:
 198 0018 00000000 		.word	.LANCHOR0
 199              		.cfi_endproc
 200              	.LFE0:
 201              		.size	UART_Start, .-UART_Start
 202              		.section	.text.UART_Stop,"ax",%progbits
 203              		.align	1
 204              		.global	UART_Stop
 205              		.thumb
 206              		.thumb_func
 207              		.type	UART_Stop, %function
 208              	UART_Stop:
 209              	.LFB3:
 224:Generated_Source\PSoC5/UART.c **** 
 225:Generated_Source\PSoC5/UART.c **** 
 226:Generated_Source\PSoC5/UART.c **** /*******************************************************************************
 227:Generated_Source\PSoC5/UART.c **** * Function Name: UART_Stop
 228:Generated_Source\PSoC5/UART.c **** ********************************************************************************
 229:Generated_Source\PSoC5/UART.c **** *
 230:Generated_Source\PSoC5/UART.c **** * Summary:
 231:Generated_Source\PSoC5/UART.c **** *  Disables the UART operation.
 232:Generated_Source\PSoC5/UART.c **** *
 233:Generated_Source\PSoC5/UART.c **** * Parameters:
 234:Generated_Source\PSoC5/UART.c **** *  None.
 235:Generated_Source\PSoC5/UART.c **** *
 236:Generated_Source\PSoC5/UART.c **** * Return:
 237:Generated_Source\PSoC5/UART.c **** *  None.
ARM GAS  C:\Users\valer\AppData\Local\Temp\ccsjZDIz.s 			page 9


 238:Generated_Source\PSoC5/UART.c **** *
 239:Generated_Source\PSoC5/UART.c **** *******************************************************************************/
 240:Generated_Source\PSoC5/UART.c **** void UART_Stop(void) 
 241:Generated_Source\PSoC5/UART.c **** {
 210              		.loc 1 241 0
 211              		.cfi_startproc
 212              		@ args = 0, pretend = 0, frame = 0
 213              		@ frame_needed = 0, uses_anonymous_args = 0
 214 0000 10B5     		push	{r4, lr}
 215              		.cfi_def_cfa_offset 8
 216              		.cfi_offset 4, -8
 217              		.cfi_offset 14, -4
 242:Generated_Source\PSoC5/UART.c ****     uint8 enableInterrupts;
 243:Generated_Source\PSoC5/UART.c ****     enableInterrupts = CyEnterCriticalSection();
 218              		.loc 1 243 0
 219 0002 FFF7FEFF 		bl	CyEnterCriticalSection
 220              	.LVL11:
 221 0006 0446     		mov	r4, r0
 222              	.LVL12:
 244:Generated_Source\PSoC5/UART.c **** 
 245:Generated_Source\PSoC5/UART.c ****     /* Write Bit Counter Disable */
 246:Generated_Source\PSoC5/UART.c ****     #if (UART_RX_ENABLED || UART_HD_ENABLED)
 247:Generated_Source\PSoC5/UART.c ****         UART_RXBITCTR_CONTROL_REG &= (uint8) ~UART_CNTR_ENABLE;
 223              		.loc 1 247 0
 224 0008 0D4A     		ldr	r2, .L13
 225 000a 1378     		ldrb	r3, [r2]	@ zero_extendqisi2
 226 000c 03F0DF03 		and	r3, r3, #223
 227 0010 1370     		strb	r3, [r2]
 248:Generated_Source\PSoC5/UART.c ****     #endif /* (UART_RX_ENABLED || UART_HD_ENABLED) */
 249:Generated_Source\PSoC5/UART.c **** 
 250:Generated_Source\PSoC5/UART.c ****     #if (UART_TX_ENABLED)
 251:Generated_Source\PSoC5/UART.c ****         #if(!UART_TXCLKGEN_DP)
 252:Generated_Source\PSoC5/UART.c ****             UART_TXBITCTR_CONTROL_REG &= (uint8) ~UART_CNTR_ENABLE;
 253:Generated_Source\PSoC5/UART.c ****         #endif /* (!UART_TXCLKGEN_DP) */
 254:Generated_Source\PSoC5/UART.c ****     #endif /* (UART_TX_ENABLED) */
 255:Generated_Source\PSoC5/UART.c **** 
 256:Generated_Source\PSoC5/UART.c ****     #if (UART_INTERNAL_CLOCK_USED)
 257:Generated_Source\PSoC5/UART.c ****         UART_IntClock_Stop();   /* Disable the clock */
 228              		.loc 1 257 0
 229 0012 FFF7FEFF 		bl	UART_IntClock_Stop
 230              	.LVL13:
 258:Generated_Source\PSoC5/UART.c ****     #endif /* (UART_INTERNAL_CLOCK_USED) */
 259:Generated_Source\PSoC5/UART.c **** 
 260:Generated_Source\PSoC5/UART.c ****     /* Disable internal interrupt component */
 261:Generated_Source\PSoC5/UART.c ****     #if (UART_RX_ENABLED || UART_HD_ENABLED)
 262:Generated_Source\PSoC5/UART.c ****         UART_RXSTATUS_ACTL_REG  &= (uint8) ~UART_INT_ENABLE;
 231              		.loc 1 262 0
 232 0016 0B4A     		ldr	r2, .L13+4
 263:Generated_Source\PSoC5/UART.c **** 
 264:Generated_Source\PSoC5/UART.c ****         #if (UART_RX_INTERRUPT_ENABLED)
 265:Generated_Source\PSoC5/UART.c ****             UART_DisableRxInt();
 266:Generated_Source\PSoC5/UART.c ****         #endif /* (UART_RX_INTERRUPT_ENABLED) */
 267:Generated_Source\PSoC5/UART.c ****     #endif /* (UART_RX_ENABLED || UART_HD_ENABLED) */
 268:Generated_Source\PSoC5/UART.c **** 
 269:Generated_Source\PSoC5/UART.c ****     #if (UART_TX_ENABLED)
 270:Generated_Source\PSoC5/UART.c ****         UART_TXSTATUS_ACTL_REG &= (uint8) ~UART_INT_ENABLE;
 233              		.loc 1 270 0
ARM GAS  C:\Users\valer\AppData\Local\Temp\ccsjZDIz.s 			page 10


 234 0018 0B49     		ldr	r1, .L13+8
 262:Generated_Source\PSoC5/UART.c **** 
 235              		.loc 1 262 0
 236 001a 1378     		ldrb	r3, [r2]	@ zero_extendqisi2
 271:Generated_Source\PSoC5/UART.c **** 
 272:Generated_Source\PSoC5/UART.c ****         #if (UART_TX_INTERRUPT_ENABLED)
 273:Generated_Source\PSoC5/UART.c ****             UART_DisableTxInt();
 274:Generated_Source\PSoC5/UART.c ****         #endif /* (UART_TX_INTERRUPT_ENABLED) */
 275:Generated_Source\PSoC5/UART.c ****     #endif /* (UART_TX_ENABLED) */
 276:Generated_Source\PSoC5/UART.c **** 
 277:Generated_Source\PSoC5/UART.c ****     CyExitCriticalSection(enableInterrupts);
 237              		.loc 1 277 0
 238 001c 2046     		mov	r0, r4
 262:Generated_Source\PSoC5/UART.c **** 
 239              		.loc 1 262 0
 240 001e 03F0EF03 		and	r3, r3, #239
 241 0022 1370     		strb	r3, [r2]
 265:Generated_Source\PSoC5/UART.c ****         #endif /* (UART_RX_INTERRUPT_ENABLED) */
 242              		.loc 1 265 0
 243 0024 094A     		ldr	r2, .L13+12
 244 0026 0223     		movs	r3, #2
 245 0028 1360     		str	r3, [r2]
 270:Generated_Source\PSoC5/UART.c **** 
 246              		.loc 1 270 0
 247 002a 0B78     		ldrb	r3, [r1]	@ zero_extendqisi2
 248 002c 03F0EF03 		and	r3, r3, #239
 249 0030 0B70     		strb	r3, [r1]
 273:Generated_Source\PSoC5/UART.c ****         #endif /* (UART_TX_INTERRUPT_ENABLED) */
 250              		.loc 1 273 0
 251 0032 0423     		movs	r3, #4
 252 0034 1360     		str	r3, [r2]
 278:Generated_Source\PSoC5/UART.c **** }
 253              		.loc 1 278 0
 254 0036 BDE81040 		pop	{r4, lr}
 255              		.cfi_restore 14
 256              		.cfi_restore 4
 257              		.cfi_def_cfa_offset 0
 258              	.LVL14:
 277:Generated_Source\PSoC5/UART.c **** }
 259              		.loc 1 277 0
 260 003a FFF7FEBF 		b	CyExitCriticalSection
 261              	.LVL15:
 262              	.L14:
 263 003e 00BF     		.align	2
 264              	.L13:
 265 0040 98650040 		.word	1073767832
 266 0044 99650040 		.word	1073767833
 267 0048 9B650040 		.word	1073767835
 268 004c 80E100E0 		.word	-536813184
 269              		.cfi_endproc
 270              	.LFE3:
 271              		.size	UART_Stop, .-UART_Stop
 272              		.section	.text.UART_ReadControlRegister,"ax",%progbits
 273              		.align	1
 274              		.global	UART_ReadControlRegister
 275              		.thumb
 276              		.thumb_func
ARM GAS  C:\Users\valer\AppData\Local\Temp\ccsjZDIz.s 			page 11


 277              		.type	UART_ReadControlRegister, %function
 278              	UART_ReadControlRegister:
 279              	.LFB4:
 279:Generated_Source\PSoC5/UART.c **** 
 280:Generated_Source\PSoC5/UART.c **** 
 281:Generated_Source\PSoC5/UART.c **** /*******************************************************************************
 282:Generated_Source\PSoC5/UART.c **** * Function Name: UART_ReadControlRegister
 283:Generated_Source\PSoC5/UART.c **** ********************************************************************************
 284:Generated_Source\PSoC5/UART.c **** *
 285:Generated_Source\PSoC5/UART.c **** * Summary:
 286:Generated_Source\PSoC5/UART.c **** *  Returns the current value of the control register.
 287:Generated_Source\PSoC5/UART.c **** *
 288:Generated_Source\PSoC5/UART.c **** * Parameters:
 289:Generated_Source\PSoC5/UART.c **** *  None.
 290:Generated_Source\PSoC5/UART.c **** *
 291:Generated_Source\PSoC5/UART.c **** * Return:
 292:Generated_Source\PSoC5/UART.c **** *  Contents of the control register.
 293:Generated_Source\PSoC5/UART.c **** *
 294:Generated_Source\PSoC5/UART.c **** *******************************************************************************/
 295:Generated_Source\PSoC5/UART.c **** uint8 UART_ReadControlRegister(void) 
 296:Generated_Source\PSoC5/UART.c **** {
 280              		.loc 1 296 0
 281              		.cfi_startproc
 282              		@ args = 0, pretend = 0, frame = 0
 283              		@ frame_needed = 0, uses_anonymous_args = 0
 284              		@ link register save eliminated.
 297:Generated_Source\PSoC5/UART.c ****     #if (UART_CONTROL_REG_REMOVED)
 298:Generated_Source\PSoC5/UART.c ****         return(0u);
 299:Generated_Source\PSoC5/UART.c ****     #else
 300:Generated_Source\PSoC5/UART.c ****         return(UART_CONTROL_REG);
 301:Generated_Source\PSoC5/UART.c ****     #endif /* (UART_CONTROL_REG_REMOVED) */
 302:Generated_Source\PSoC5/UART.c **** }
 285              		.loc 1 302 0
 286 0000 0020     		movs	r0, #0
 287 0002 7047     		bx	lr
 288              		.cfi_endproc
 289              	.LFE4:
 290              		.size	UART_ReadControlRegister, .-UART_ReadControlRegister
 291              		.section	.text.UART_WriteControlRegister,"ax",%progbits
 292              		.align	1
 293              		.global	UART_WriteControlRegister
 294              		.thumb
 295              		.thumb_func
 296              		.type	UART_WriteControlRegister, %function
 297              	UART_WriteControlRegister:
 298              	.LFB30:
 299              		.cfi_startproc
 300              		@ args = 0, pretend = 0, frame = 0
 301              		@ frame_needed = 0, uses_anonymous_args = 0
 302              		@ link register save eliminated.
 303 0000 7047     		bx	lr
 304              		.cfi_endproc
 305              	.LFE30:
 306              		.size	UART_WriteControlRegister, .-UART_WriteControlRegister
 307              		.section	.text.UART_SetRxInterruptMode,"ax",%progbits
 308              		.align	1
 309              		.global	UART_SetRxInterruptMode
ARM GAS  C:\Users\valer\AppData\Local\Temp\ccsjZDIz.s 			page 12


 310              		.thumb
 311              		.thumb_func
 312              		.type	UART_SetRxInterruptMode, %function
 313              	UART_SetRxInterruptMode:
 314              	.LFB6:
 303:Generated_Source\PSoC5/UART.c **** 
 304:Generated_Source\PSoC5/UART.c **** 
 305:Generated_Source\PSoC5/UART.c **** /*******************************************************************************
 306:Generated_Source\PSoC5/UART.c **** * Function Name: UART_WriteControlRegister
 307:Generated_Source\PSoC5/UART.c **** ********************************************************************************
 308:Generated_Source\PSoC5/UART.c **** *
 309:Generated_Source\PSoC5/UART.c **** * Summary:
 310:Generated_Source\PSoC5/UART.c **** *  Writes an 8-bit value into the control register
 311:Generated_Source\PSoC5/UART.c **** *
 312:Generated_Source\PSoC5/UART.c **** * Parameters:
 313:Generated_Source\PSoC5/UART.c **** *  control:  control register value
 314:Generated_Source\PSoC5/UART.c **** *
 315:Generated_Source\PSoC5/UART.c **** * Return:
 316:Generated_Source\PSoC5/UART.c **** *  None.
 317:Generated_Source\PSoC5/UART.c **** *
 318:Generated_Source\PSoC5/UART.c **** *******************************************************************************/
 319:Generated_Source\PSoC5/UART.c **** void  UART_WriteControlRegister(uint8 control) 
 320:Generated_Source\PSoC5/UART.c **** {
 321:Generated_Source\PSoC5/UART.c ****     #if (UART_CONTROL_REG_REMOVED)
 322:Generated_Source\PSoC5/UART.c ****         if(0u != control)
 323:Generated_Source\PSoC5/UART.c ****         {
 324:Generated_Source\PSoC5/UART.c ****             /* Suppress compiler warning */
 325:Generated_Source\PSoC5/UART.c ****         }
 326:Generated_Source\PSoC5/UART.c ****     #else
 327:Generated_Source\PSoC5/UART.c ****        UART_CONTROL_REG = control;
 328:Generated_Source\PSoC5/UART.c ****     #endif /* (UART_CONTROL_REG_REMOVED) */
 329:Generated_Source\PSoC5/UART.c **** }
 330:Generated_Source\PSoC5/UART.c **** 
 331:Generated_Source\PSoC5/UART.c **** 
 332:Generated_Source\PSoC5/UART.c **** #if(UART_RX_ENABLED || UART_HD_ENABLED)
 333:Generated_Source\PSoC5/UART.c ****     /*******************************************************************************
 334:Generated_Source\PSoC5/UART.c ****     * Function Name: UART_SetRxInterruptMode
 335:Generated_Source\PSoC5/UART.c ****     ********************************************************************************
 336:Generated_Source\PSoC5/UART.c ****     *
 337:Generated_Source\PSoC5/UART.c ****     * Summary:
 338:Generated_Source\PSoC5/UART.c ****     *  Configures the RX interrupt sources enabled.
 339:Generated_Source\PSoC5/UART.c ****     *
 340:Generated_Source\PSoC5/UART.c ****     * Parameters:
 341:Generated_Source\PSoC5/UART.c ****     *  IntSrc:  Bit field containing the RX interrupts to enable. Based on the 
 342:Generated_Source\PSoC5/UART.c ****     *  bit-field arrangement of the status register. This value must be a 
 343:Generated_Source\PSoC5/UART.c ****     *  combination of status register bit-masks shown below:
 344:Generated_Source\PSoC5/UART.c ****     *      UART_RX_STS_FIFO_NOTEMPTY    Interrupt on byte received.
 345:Generated_Source\PSoC5/UART.c ****     *      UART_RX_STS_PAR_ERROR        Interrupt on parity error.
 346:Generated_Source\PSoC5/UART.c ****     *      UART_RX_STS_STOP_ERROR       Interrupt on stop error.
 347:Generated_Source\PSoC5/UART.c ****     *      UART_RX_STS_BREAK            Interrupt on break.
 348:Generated_Source\PSoC5/UART.c ****     *      UART_RX_STS_OVERRUN          Interrupt on overrun error.
 349:Generated_Source\PSoC5/UART.c ****     *      UART_RX_STS_ADDR_MATCH       Interrupt on address match.
 350:Generated_Source\PSoC5/UART.c ****     *      UART_RX_STS_MRKSPC           Interrupt on address detect.
 351:Generated_Source\PSoC5/UART.c ****     *
 352:Generated_Source\PSoC5/UART.c ****     * Return:
 353:Generated_Source\PSoC5/UART.c ****     *  None.
 354:Generated_Source\PSoC5/UART.c ****     *
ARM GAS  C:\Users\valer\AppData\Local\Temp\ccsjZDIz.s 			page 13


 355:Generated_Source\PSoC5/UART.c ****     * Theory:
 356:Generated_Source\PSoC5/UART.c ****     *  Enables the output of specific status bits to the interrupt controller
 357:Generated_Source\PSoC5/UART.c ****     *
 358:Generated_Source\PSoC5/UART.c ****     *******************************************************************************/
 359:Generated_Source\PSoC5/UART.c ****     void UART_SetRxInterruptMode(uint8 intSrc) 
 360:Generated_Source\PSoC5/UART.c ****     {
 315              		.loc 1 360 0
 316              		.cfi_startproc
 317              		@ args = 0, pretend = 0, frame = 0
 318              		@ frame_needed = 0, uses_anonymous_args = 0
 319              		@ link register save eliminated.
 320              	.LVL16:
 361:Generated_Source\PSoC5/UART.c ****         UART_RXSTATUS_MASK_REG  = intSrc;
 321              		.loc 1 361 0
 322 0000 014B     		ldr	r3, .L18
 323 0002 1870     		strb	r0, [r3]
 324 0004 7047     		bx	lr
 325              	.L19:
 326 0006 00BF     		.align	2
 327              	.L18:
 328 0008 89650040 		.word	1073767817
 329              		.cfi_endproc
 330              	.LFE6:
 331              		.size	UART_SetRxInterruptMode, .-UART_SetRxInterruptMode
 332              		.section	.text.UART_ReadRxData,"ax",%progbits
 333              		.align	1
 334              		.global	UART_ReadRxData
 335              		.thumb
 336              		.thumb_func
 337              		.type	UART_ReadRxData, %function
 338              	UART_ReadRxData:
 339              	.LFB7:
 362:Generated_Source\PSoC5/UART.c ****     }
 363:Generated_Source\PSoC5/UART.c **** 
 364:Generated_Source\PSoC5/UART.c **** 
 365:Generated_Source\PSoC5/UART.c ****     /*******************************************************************************
 366:Generated_Source\PSoC5/UART.c ****     * Function Name: UART_ReadRxData
 367:Generated_Source\PSoC5/UART.c ****     ********************************************************************************
 368:Generated_Source\PSoC5/UART.c ****     *
 369:Generated_Source\PSoC5/UART.c ****     * Summary:
 370:Generated_Source\PSoC5/UART.c ****     *  Returns the next byte of received data. This function returns data without
 371:Generated_Source\PSoC5/UART.c ****     *  checking the status. You must check the status separately.
 372:Generated_Source\PSoC5/UART.c ****     *
 373:Generated_Source\PSoC5/UART.c ****     * Parameters:
 374:Generated_Source\PSoC5/UART.c ****     *  None.
 375:Generated_Source\PSoC5/UART.c ****     *
 376:Generated_Source\PSoC5/UART.c ****     * Return:
 377:Generated_Source\PSoC5/UART.c ****     *  Received data from RX register
 378:Generated_Source\PSoC5/UART.c ****     *
 379:Generated_Source\PSoC5/UART.c ****     * Global Variables:
 380:Generated_Source\PSoC5/UART.c ****     *  UART_rxBuffer - RAM buffer pointer for save received data.
 381:Generated_Source\PSoC5/UART.c ****     *  UART_rxBufferWrite - cyclic index for write to rxBuffer,
 382:Generated_Source\PSoC5/UART.c ****     *     checked to identify new data.
 383:Generated_Source\PSoC5/UART.c ****     *  UART_rxBufferRead - cyclic index for read from rxBuffer,
 384:Generated_Source\PSoC5/UART.c ****     *     incremented after each byte has been read from buffer.
 385:Generated_Source\PSoC5/UART.c ****     *  UART_rxBufferLoopDetect - cleared if loop condition was detected
 386:Generated_Source\PSoC5/UART.c ****     *     in RX ISR.
ARM GAS  C:\Users\valer\AppData\Local\Temp\ccsjZDIz.s 			page 14


 387:Generated_Source\PSoC5/UART.c ****     *
 388:Generated_Source\PSoC5/UART.c ****     * Reentrant:
 389:Generated_Source\PSoC5/UART.c ****     *  No.
 390:Generated_Source\PSoC5/UART.c ****     *
 391:Generated_Source\PSoC5/UART.c ****     *******************************************************************************/
 392:Generated_Source\PSoC5/UART.c ****     uint8 UART_ReadRxData(void) 
 393:Generated_Source\PSoC5/UART.c ****     {
 340              		.loc 1 393 0
 341              		.cfi_startproc
 342              		@ args = 0, pretend = 0, frame = 0
 343              		@ frame_needed = 0, uses_anonymous_args = 0
 344              		@ link register save eliminated.
 394:Generated_Source\PSoC5/UART.c ****         uint8 rxData;
 395:Generated_Source\PSoC5/UART.c **** 
 396:Generated_Source\PSoC5/UART.c ****     #if (UART_RX_INTERRUPT_ENABLED)
 397:Generated_Source\PSoC5/UART.c **** 
 398:Generated_Source\PSoC5/UART.c ****         uint8 locRxBufferRead;
 399:Generated_Source\PSoC5/UART.c ****         uint8 locRxBufferWrite;
 400:Generated_Source\PSoC5/UART.c **** 
 401:Generated_Source\PSoC5/UART.c ****         /* Protect variables that could change on interrupt */
 402:Generated_Source\PSoC5/UART.c ****         UART_DisableRxInt();
 345              		.loc 1 402 0
 346 0000 104B     		ldr	r3, .L28
 347 0002 0222     		movs	r2, #2
 348 0004 1A60     		str	r2, [r3]
 403:Generated_Source\PSoC5/UART.c **** 
 404:Generated_Source\PSoC5/UART.c ****         locRxBufferRead  = UART_rxBufferRead;
 349              		.loc 1 404 0
 350 0006 104A     		ldr	r2, .L28+4
 351 0008 9378     		ldrb	r3, [r2, #2]	@ zero_extendqisi2
 405:Generated_Source\PSoC5/UART.c ****         locRxBufferWrite = UART_rxBufferWrite;
 352              		.loc 1 405 0
 353 000a D178     		ldrb	r1, [r2, #3]	@ zero_extendqisi2
 406:Generated_Source\PSoC5/UART.c **** 
 407:Generated_Source\PSoC5/UART.c ****         if( (UART_rxBufferLoopDetect != 0u) || (locRxBufferRead != locRxBufferWrite) )
 354              		.loc 1 407 0
 355 000c 1079     		ldrb	r0, [r2, #4]	@ zero_extendqisi2
 404:Generated_Source\PSoC5/UART.c ****         locRxBufferWrite = UART_rxBufferWrite;
 356              		.loc 1 404 0
 357 000e DBB2     		uxtb	r3, r3
 358              	.LVL17:
 405:Generated_Source\PSoC5/UART.c ****         locRxBufferWrite = UART_rxBufferWrite;
 359              		.loc 1 405 0
 360 0010 C9B2     		uxtb	r1, r1
 361              	.LVL18:
 362              		.loc 1 407 0
 363 0012 08B9     		cbnz	r0, .L21
 364              		.loc 1 407 0 is_stmt 0 discriminator 1
 365 0014 8B42     		cmp	r3, r1
 366 0016 0ED0     		beq	.L22
 367              	.L21:
 408:Generated_Source\PSoC5/UART.c ****         {
 409:Generated_Source\PSoC5/UART.c ****             rxData = UART_rxBuffer[locRxBufferRead];
 368              		.loc 1 409 0 is_stmt 1
 369 0018 0C49     		ldr	r1, .L28+8
 370              	.LVL19:
 371 001a C85C     		ldrb	r0, [r1, r3]	@ zero_extendqisi2
ARM GAS  C:\Users\valer\AppData\Local\Temp\ccsjZDIz.s 			page 15


 410:Generated_Source\PSoC5/UART.c ****             locRxBufferRead++;
 372              		.loc 1 410 0
 373 001c 0133     		adds	r3, r3, #1
 374              	.LVL20:
 375 001e DBB2     		uxtb	r3, r3
 376              	.LVL21:
 411:Generated_Source\PSoC5/UART.c **** 
 412:Generated_Source\PSoC5/UART.c ****             if(locRxBufferRead >= UART_RX_BUFFER_SIZE)
 413:Generated_Source\PSoC5/UART.c ****             {
 414:Generated_Source\PSoC5/UART.c ****                 locRxBufferRead = 0u;
 377              		.loc 1 414 0
 378 0020 082B     		cmp	r3, #8
 379 0022 28BF     		it	cs
 380 0024 0023     		movcs	r3, #0
 415:Generated_Source\PSoC5/UART.c ****             }
 416:Generated_Source\PSoC5/UART.c ****             /* Update the real pointer */
 417:Generated_Source\PSoC5/UART.c ****             UART_rxBufferRead = locRxBufferRead;
 381              		.loc 1 417 0
 382 0026 9370     		strb	r3, [r2, #2]
 418:Generated_Source\PSoC5/UART.c **** 
 419:Generated_Source\PSoC5/UART.c ****             if(UART_rxBufferLoopDetect != 0u)
 383              		.loc 1 419 0
 384 0028 1379     		ldrb	r3, [r2, #4]	@ zero_extendqisi2
 409:Generated_Source\PSoC5/UART.c ****             locRxBufferRead++;
 385              		.loc 1 409 0
 386 002a C0B2     		uxtb	r0, r0
 387              	.LVL22:
 388              		.loc 1 419 0
 389 002c 33B1     		cbz	r3, .L24
 420:Generated_Source\PSoC5/UART.c ****             {
 421:Generated_Source\PSoC5/UART.c ****                 UART_rxBufferLoopDetect = 0u;
 390              		.loc 1 421 0
 391 002e 064B     		ldr	r3, .L28+4
 392 0030 0022     		movs	r2, #0
 393 0032 1A71     		strb	r2, [r3, #4]
 394 0034 02E0     		b	.L24
 395              	.LVL23:
 396              	.L22:
 422:Generated_Source\PSoC5/UART.c ****                 #if ((UART_RX_INTERRUPT_ENABLED) && (UART_FLOW_CONTROL != 0u))
 423:Generated_Source\PSoC5/UART.c ****                     /* When Hardware Flow Control selected - return RX mask */
 424:Generated_Source\PSoC5/UART.c ****                     #if( UART_HD_ENABLED )
 425:Generated_Source\PSoC5/UART.c ****                         if((UART_CONTROL_REG & UART_CTRL_HD_SEND) == 0u)
 426:Generated_Source\PSoC5/UART.c ****                         {   /* In Half duplex mode return RX mask only in RX
 427:Generated_Source\PSoC5/UART.c ****                             *  configuration set, otherwise
 428:Generated_Source\PSoC5/UART.c ****                             *  mask will be returned in LoadRxConfig() API.
 429:Generated_Source\PSoC5/UART.c ****                             */
 430:Generated_Source\PSoC5/UART.c ****                             UART_RXSTATUS_MASK_REG  |= UART_RX_STS_FIFO_NOTEMPTY;
 431:Generated_Source\PSoC5/UART.c ****                         }
 432:Generated_Source\PSoC5/UART.c ****                     #else
 433:Generated_Source\PSoC5/UART.c ****                         UART_RXSTATUS_MASK_REG  |= UART_RX_STS_FIFO_NOTEMPTY;
 434:Generated_Source\PSoC5/UART.c ****                     #endif /* end UART_HD_ENABLED */
 435:Generated_Source\PSoC5/UART.c ****                 #endif /* ((UART_RX_INTERRUPT_ENABLED) && (UART_FLOW_CONTROL != 0u)) */
 436:Generated_Source\PSoC5/UART.c ****             }
 437:Generated_Source\PSoC5/UART.c ****         }
 438:Generated_Source\PSoC5/UART.c ****         else
 439:Generated_Source\PSoC5/UART.c ****         {   /* Needs to check status for RX_STS_FIFO_NOTEMPTY bit */
 440:Generated_Source\PSoC5/UART.c ****             rxData = UART_RXDATA_REG;
ARM GAS  C:\Users\valer\AppData\Local\Temp\ccsjZDIz.s 			page 16


 397              		.loc 1 440 0
 398 0036 064B     		ldr	r3, .L28+12
 399              	.LVL24:
 400 0038 1878     		ldrb	r0, [r3]	@ zero_extendqisi2
 401 003a C0B2     		uxtb	r0, r0
 402              	.LVL25:
 403              	.L24:
 441:Generated_Source\PSoC5/UART.c ****         }
 442:Generated_Source\PSoC5/UART.c **** 
 443:Generated_Source\PSoC5/UART.c ****         UART_EnableRxInt();
 404              		.loc 1 443 0
 405 003c 054B     		ldr	r3, .L28+16
 406 003e 0222     		movs	r2, #2
 407 0040 1A60     		str	r2, [r3]
 444:Generated_Source\PSoC5/UART.c **** 
 445:Generated_Source\PSoC5/UART.c ****     #else
 446:Generated_Source\PSoC5/UART.c **** 
 447:Generated_Source\PSoC5/UART.c ****         /* Needs to check status for RX_STS_FIFO_NOTEMPTY bit */
 448:Generated_Source\PSoC5/UART.c ****         rxData = UART_RXDATA_REG;
 449:Generated_Source\PSoC5/UART.c **** 
 450:Generated_Source\PSoC5/UART.c ****     #endif /* (UART_RX_INTERRUPT_ENABLED) */
 451:Generated_Source\PSoC5/UART.c **** 
 452:Generated_Source\PSoC5/UART.c ****         return(rxData);
 453:Generated_Source\PSoC5/UART.c ****     }
 408              		.loc 1 453 0
 409 0042 7047     		bx	lr
 410              	.L29:
 411              		.align	2
 412              	.L28:
 413 0044 80E100E0 		.word	-536813184
 414 0048 00000000 		.word	.LANCHOR0
 415 004c 00000000 		.word	UART_rxBuffer
 416 0050 48650040 		.word	1073767752
 417 0054 00E100E0 		.word	-536813312
 418              		.cfi_endproc
 419              	.LFE7:
 420              		.size	UART_ReadRxData, .-UART_ReadRxData
 421              		.section	.text.UART_ReadRxStatus,"ax",%progbits
 422              		.align	1
 423              		.global	UART_ReadRxStatus
 424              		.thumb
 425              		.thumb_func
 426              		.type	UART_ReadRxStatus, %function
 427              	UART_ReadRxStatus:
 428              	.LFB8:
 454:Generated_Source\PSoC5/UART.c **** 
 455:Generated_Source\PSoC5/UART.c **** 
 456:Generated_Source\PSoC5/UART.c ****     /*******************************************************************************
 457:Generated_Source\PSoC5/UART.c ****     * Function Name: UART_ReadRxStatus
 458:Generated_Source\PSoC5/UART.c ****     ********************************************************************************
 459:Generated_Source\PSoC5/UART.c ****     *
 460:Generated_Source\PSoC5/UART.c ****     * Summary:
 461:Generated_Source\PSoC5/UART.c ****     *  Returns the current state of the receiver status register and the software
 462:Generated_Source\PSoC5/UART.c ****     *  buffer overflow status.
 463:Generated_Source\PSoC5/UART.c ****     *
 464:Generated_Source\PSoC5/UART.c ****     * Parameters:
 465:Generated_Source\PSoC5/UART.c ****     *  None.
ARM GAS  C:\Users\valer\AppData\Local\Temp\ccsjZDIz.s 			page 17


 466:Generated_Source\PSoC5/UART.c ****     *
 467:Generated_Source\PSoC5/UART.c ****     * Return:
 468:Generated_Source\PSoC5/UART.c ****     *  Current state of the status register.
 469:Generated_Source\PSoC5/UART.c ****     *
 470:Generated_Source\PSoC5/UART.c ****     * Side Effect:
 471:Generated_Source\PSoC5/UART.c ****     *  All status register bits are clear-on-read except
 472:Generated_Source\PSoC5/UART.c ****     *  UART_RX_STS_FIFO_NOTEMPTY.
 473:Generated_Source\PSoC5/UART.c ****     *  UART_RX_STS_FIFO_NOTEMPTY clears immediately after RX data
 474:Generated_Source\PSoC5/UART.c ****     *  register read.
 475:Generated_Source\PSoC5/UART.c ****     *
 476:Generated_Source\PSoC5/UART.c ****     * Global Variables:
 477:Generated_Source\PSoC5/UART.c ****     *  UART_rxBufferOverflow - used to indicate overload condition.
 478:Generated_Source\PSoC5/UART.c ****     *   It set to one in RX interrupt when there isn't free space in
 479:Generated_Source\PSoC5/UART.c ****     *   UART_rxBufferRead to write new data. This condition returned
 480:Generated_Source\PSoC5/UART.c ****     *   and cleared to zero by this API as an
 481:Generated_Source\PSoC5/UART.c ****     *   UART_RX_STS_SOFT_BUFF_OVER bit along with RX Status register
 482:Generated_Source\PSoC5/UART.c ****     *   bits.
 483:Generated_Source\PSoC5/UART.c ****     *
 484:Generated_Source\PSoC5/UART.c ****     *******************************************************************************/
 485:Generated_Source\PSoC5/UART.c ****     uint8 UART_ReadRxStatus(void) 
 486:Generated_Source\PSoC5/UART.c ****     {
 429              		.loc 1 486 0
 430              		.cfi_startproc
 431              		@ args = 0, pretend = 0, frame = 0
 432              		@ frame_needed = 0, uses_anonymous_args = 0
 433              		@ link register save eliminated.
 487:Generated_Source\PSoC5/UART.c ****         uint8 status;
 488:Generated_Source\PSoC5/UART.c **** 
 489:Generated_Source\PSoC5/UART.c ****         status = UART_RXSTATUS_REG & UART_RX_HW_MASK;
 434              		.loc 1 489 0
 435 0000 054B     		ldr	r3, .L35
 436 0002 1878     		ldrb	r0, [r3]	@ zero_extendqisi2
 490:Generated_Source\PSoC5/UART.c **** 
 491:Generated_Source\PSoC5/UART.c ****     #if (UART_RX_INTERRUPT_ENABLED)
 492:Generated_Source\PSoC5/UART.c ****         if(UART_rxBufferOverflow != 0u)
 437              		.loc 1 492 0
 438 0004 054B     		ldr	r3, .L35+4
 489:Generated_Source\PSoC5/UART.c **** 
 439              		.loc 1 489 0
 440 0006 00F07F00 		and	r0, r0, #127
 441              	.LVL26:
 442              		.loc 1 492 0
 443 000a 5A79     		ldrb	r2, [r3, #5]	@ zero_extendqisi2
 444 000c 1AB1     		cbz	r2, .L31
 493:Generated_Source\PSoC5/UART.c ****         {
 494:Generated_Source\PSoC5/UART.c ****             status |= UART_RX_STS_SOFT_BUFF_OVER;
 495:Generated_Source\PSoC5/UART.c ****             UART_rxBufferOverflow = 0u;
 445              		.loc 1 495 0
 446 000e 0022     		movs	r2, #0
 494:Generated_Source\PSoC5/UART.c ****             UART_rxBufferOverflow = 0u;
 447              		.loc 1 494 0
 448 0010 40F08000 		orr	r0, r0, #128
 449              	.LVL27:
 450              		.loc 1 495 0
 451 0014 5A71     		strb	r2, [r3, #5]
 452              	.L31:
 496:Generated_Source\PSoC5/UART.c ****         }
ARM GAS  C:\Users\valer\AppData\Local\Temp\ccsjZDIz.s 			page 18


 497:Generated_Source\PSoC5/UART.c ****     #endif /* (UART_RX_INTERRUPT_ENABLED) */
 498:Generated_Source\PSoC5/UART.c **** 
 499:Generated_Source\PSoC5/UART.c ****         return(status);
 500:Generated_Source\PSoC5/UART.c ****     }
 453              		.loc 1 500 0
 454 0016 7047     		bx	lr
 455              	.L36:
 456              		.align	2
 457              	.L35:
 458 0018 69650040 		.word	1073767785
 459 001c 00000000 		.word	.LANCHOR0
 460              		.cfi_endproc
 461              	.LFE8:
 462              		.size	UART_ReadRxStatus, .-UART_ReadRxStatus
 463              		.section	.text.UART_GetChar,"ax",%progbits
 464              		.align	1
 465              		.global	UART_GetChar
 466              		.thumb
 467              		.thumb_func
 468              		.type	UART_GetChar, %function
 469              	UART_GetChar:
 470              	.LFB9:
 501:Generated_Source\PSoC5/UART.c **** 
 502:Generated_Source\PSoC5/UART.c **** 
 503:Generated_Source\PSoC5/UART.c ****     /*******************************************************************************
 504:Generated_Source\PSoC5/UART.c ****     * Function Name: UART_GetChar
 505:Generated_Source\PSoC5/UART.c ****     ********************************************************************************
 506:Generated_Source\PSoC5/UART.c ****     *
 507:Generated_Source\PSoC5/UART.c ****     * Summary:
 508:Generated_Source\PSoC5/UART.c ****     *  Returns the last received byte of data. UART_GetChar() is
 509:Generated_Source\PSoC5/UART.c ****     *  designed for ASCII characters and returns a uint8 where 1 to 255 are values
 510:Generated_Source\PSoC5/UART.c ****     *  for valid characters and 0 indicates an error occurred or no data is present.
 511:Generated_Source\PSoC5/UART.c ****     *
 512:Generated_Source\PSoC5/UART.c ****     * Parameters:
 513:Generated_Source\PSoC5/UART.c ****     *  None.
 514:Generated_Source\PSoC5/UART.c ****     *
 515:Generated_Source\PSoC5/UART.c ****     * Return:
 516:Generated_Source\PSoC5/UART.c ****     *  Character read from UART RX buffer. ASCII characters from 1 to 255 are valid.
 517:Generated_Source\PSoC5/UART.c ****     *  A returned zero signifies an error condition or no data available.
 518:Generated_Source\PSoC5/UART.c ****     *
 519:Generated_Source\PSoC5/UART.c ****     * Global Variables:
 520:Generated_Source\PSoC5/UART.c ****     *  UART_rxBuffer - RAM buffer pointer for save received data.
 521:Generated_Source\PSoC5/UART.c ****     *  UART_rxBufferWrite - cyclic index for write to rxBuffer,
 522:Generated_Source\PSoC5/UART.c ****     *     checked to identify new data.
 523:Generated_Source\PSoC5/UART.c ****     *  UART_rxBufferRead - cyclic index for read from rxBuffer,
 524:Generated_Source\PSoC5/UART.c ****     *     incremented after each byte has been read from buffer.
 525:Generated_Source\PSoC5/UART.c ****     *  UART_rxBufferLoopDetect - cleared if loop condition was detected
 526:Generated_Source\PSoC5/UART.c ****     *     in RX ISR.
 527:Generated_Source\PSoC5/UART.c ****     *
 528:Generated_Source\PSoC5/UART.c ****     * Reentrant:
 529:Generated_Source\PSoC5/UART.c ****     *  No.
 530:Generated_Source\PSoC5/UART.c ****     *
 531:Generated_Source\PSoC5/UART.c ****     *******************************************************************************/
 532:Generated_Source\PSoC5/UART.c ****     uint8 UART_GetChar(void) 
 533:Generated_Source\PSoC5/UART.c ****     {
 471              		.loc 1 533 0
 472              		.cfi_startproc
ARM GAS  C:\Users\valer\AppData\Local\Temp\ccsjZDIz.s 			page 19


 473              		@ args = 0, pretend = 0, frame = 0
 474              		@ frame_needed = 0, uses_anonymous_args = 0
 475              		@ link register save eliminated.
 476              	.LVL28:
 534:Generated_Source\PSoC5/UART.c ****         uint8 rxData = 0u;
 535:Generated_Source\PSoC5/UART.c ****         uint8 rxStatus;
 536:Generated_Source\PSoC5/UART.c **** 
 537:Generated_Source\PSoC5/UART.c ****     #if (UART_RX_INTERRUPT_ENABLED)
 538:Generated_Source\PSoC5/UART.c ****         uint8 locRxBufferRead;
 539:Generated_Source\PSoC5/UART.c ****         uint8 locRxBufferWrite;
 540:Generated_Source\PSoC5/UART.c **** 
 541:Generated_Source\PSoC5/UART.c ****         /* Protect variables that could change on interrupt */
 542:Generated_Source\PSoC5/UART.c ****         UART_DisableRxInt();
 477              		.loc 1 542 0
 478 0000 164B     		ldr	r3, .L47
 479 0002 0222     		movs	r2, #2
 480 0004 1A60     		str	r2, [r3]
 543:Generated_Source\PSoC5/UART.c **** 
 544:Generated_Source\PSoC5/UART.c ****         locRxBufferRead  = UART_rxBufferRead;
 481              		.loc 1 544 0
 482 0006 164A     		ldr	r2, .L47+4
 483 0008 9378     		ldrb	r3, [r2, #2]	@ zero_extendqisi2
 545:Generated_Source\PSoC5/UART.c ****         locRxBufferWrite = UART_rxBufferWrite;
 484              		.loc 1 545 0
 485 000a D178     		ldrb	r1, [r2, #3]	@ zero_extendqisi2
 546:Generated_Source\PSoC5/UART.c **** 
 547:Generated_Source\PSoC5/UART.c ****         if( (UART_rxBufferLoopDetect != 0u) || (locRxBufferRead != locRxBufferWrite) )
 486              		.loc 1 547 0
 487 000c 1079     		ldrb	r0, [r2, #4]	@ zero_extendqisi2
 544:Generated_Source\PSoC5/UART.c ****         locRxBufferWrite = UART_rxBufferWrite;
 488              		.loc 1 544 0
 489 000e DBB2     		uxtb	r3, r3
 490              	.LVL29:
 545:Generated_Source\PSoC5/UART.c ****         locRxBufferWrite = UART_rxBufferWrite;
 491              		.loc 1 545 0
 492 0010 C9B2     		uxtb	r1, r1
 493              	.LVL30:
 494              		.loc 1 547 0
 495 0012 08B9     		cbnz	r0, .L38
 496              		.loc 1 547 0 is_stmt 0 discriminator 1
 497 0014 8B42     		cmp	r3, r1
 498 0016 0ED0     		beq	.L39
 499              	.L38:
 548:Generated_Source\PSoC5/UART.c ****         {
 549:Generated_Source\PSoC5/UART.c ****             rxData = UART_rxBuffer[locRxBufferRead];
 500              		.loc 1 549 0 is_stmt 1
 501 0018 1249     		ldr	r1, .L47+8
 502              	.LVL31:
 503 001a C85C     		ldrb	r0, [r1, r3]	@ zero_extendqisi2
 550:Generated_Source\PSoC5/UART.c ****             locRxBufferRead++;
 504              		.loc 1 550 0
 505 001c 0133     		adds	r3, r3, #1
 506              	.LVL32:
 507 001e DBB2     		uxtb	r3, r3
 508              	.LVL33:
 551:Generated_Source\PSoC5/UART.c ****             if(locRxBufferRead >= UART_RX_BUFFER_SIZE)
 552:Generated_Source\PSoC5/UART.c ****             {
ARM GAS  C:\Users\valer\AppData\Local\Temp\ccsjZDIz.s 			page 20


 553:Generated_Source\PSoC5/UART.c ****                 locRxBufferRead = 0u;
 509              		.loc 1 553 0
 510 0020 082B     		cmp	r3, #8
 511 0022 28BF     		it	cs
 512 0024 0023     		movcs	r3, #0
 554:Generated_Source\PSoC5/UART.c ****             }
 555:Generated_Source\PSoC5/UART.c ****             /* Update the real pointer */
 556:Generated_Source\PSoC5/UART.c ****             UART_rxBufferRead = locRxBufferRead;
 513              		.loc 1 556 0
 514 0026 9370     		strb	r3, [r2, #2]
 557:Generated_Source\PSoC5/UART.c **** 
 558:Generated_Source\PSoC5/UART.c ****             if(UART_rxBufferLoopDetect != 0u)
 515              		.loc 1 558 0
 516 0028 1379     		ldrb	r3, [r2, #4]	@ zero_extendqisi2
 549:Generated_Source\PSoC5/UART.c ****             locRxBufferRead++;
 517              		.loc 1 549 0
 518 002a C0B2     		uxtb	r0, r0
 519              	.LVL34:
 520              		.loc 1 558 0
 521 002c 8BB1     		cbz	r3, .L41
 559:Generated_Source\PSoC5/UART.c ****             {
 560:Generated_Source\PSoC5/UART.c ****                 UART_rxBufferLoopDetect = 0u;
 522              		.loc 1 560 0
 523 002e 0C4B     		ldr	r3, .L47+4
 524 0030 0022     		movs	r2, #0
 525 0032 1A71     		strb	r2, [r3, #4]
 526 0034 0DE0     		b	.L41
 527              	.LVL35:
 528              	.L39:
 561:Generated_Source\PSoC5/UART.c ****                 #if( (UART_RX_INTERRUPT_ENABLED) && (UART_FLOW_CONTROL != 0u) )
 562:Generated_Source\PSoC5/UART.c ****                     /* When Hardware Flow Control selected - return RX mask */
 563:Generated_Source\PSoC5/UART.c ****                     #if( UART_HD_ENABLED )
 564:Generated_Source\PSoC5/UART.c ****                         if((UART_CONTROL_REG & UART_CTRL_HD_SEND) == 0u)
 565:Generated_Source\PSoC5/UART.c ****                         {   /* In Half duplex mode return RX mask only if
 566:Generated_Source\PSoC5/UART.c ****                             *  RX configuration set, otherwise
 567:Generated_Source\PSoC5/UART.c ****                             *  mask will be returned in LoadRxConfig() API.
 568:Generated_Source\PSoC5/UART.c ****                             */
 569:Generated_Source\PSoC5/UART.c ****                             UART_RXSTATUS_MASK_REG |= UART_RX_STS_FIFO_NOTEMPTY;
 570:Generated_Source\PSoC5/UART.c ****                         }
 571:Generated_Source\PSoC5/UART.c ****                     #else
 572:Generated_Source\PSoC5/UART.c ****                         UART_RXSTATUS_MASK_REG |= UART_RX_STS_FIFO_NOTEMPTY;
 573:Generated_Source\PSoC5/UART.c ****                     #endif /* end UART_HD_ENABLED */
 574:Generated_Source\PSoC5/UART.c ****                 #endif /* UART_RX_INTERRUPT_ENABLED and Hardware flow control*/
 575:Generated_Source\PSoC5/UART.c ****             }
 576:Generated_Source\PSoC5/UART.c **** 
 577:Generated_Source\PSoC5/UART.c ****         }
 578:Generated_Source\PSoC5/UART.c ****         else
 579:Generated_Source\PSoC5/UART.c ****         {   rxStatus = UART_RXSTATUS_REG;
 529              		.loc 1 579 0
 530 0036 0C4B     		ldr	r3, .L47+12
 531              	.LVL36:
 532 0038 1B78     		ldrb	r3, [r3]	@ zero_extendqisi2
 533 003a DBB2     		uxtb	r3, r3
 534              	.LVL37:
 580:Generated_Source\PSoC5/UART.c ****             if((rxStatus & UART_RX_STS_FIFO_NOTEMPTY) != 0u)
 535              		.loc 1 580 0
 536 003c 03F02002 		and	r2, r3, #32
ARM GAS  C:\Users\valer\AppData\Local\Temp\ccsjZDIz.s 			page 21


 537 0040 02F0FF00 		and	r0, r2, #255
 538 0044 2AB1     		cbz	r2, .L41
 581:Generated_Source\PSoC5/UART.c ****             {   /* Read received data from FIFO */
 582:Generated_Source\PSoC5/UART.c ****                 rxData = UART_RXDATA_REG;
 539              		.loc 1 582 0
 540 0046 094A     		ldr	r2, .L47+16
 583:Generated_Source\PSoC5/UART.c ****                 /*Check status on error*/
 584:Generated_Source\PSoC5/UART.c ****                 if((rxStatus & (UART_RX_STS_BREAK | UART_RX_STS_PAR_ERROR |
 585:Generated_Source\PSoC5/UART.c ****                                 UART_RX_STS_STOP_ERROR | UART_RX_STS_OVERRUN)) != 0u)
 586:Generated_Source\PSoC5/UART.c ****                 {
 587:Generated_Source\PSoC5/UART.c ****                     rxData = 0u;
 541              		.loc 1 587 0
 542 0048 13F01E0F 		tst	r3, #30
 582:Generated_Source\PSoC5/UART.c ****                 /*Check status on error*/
 543              		.loc 1 582 0
 544 004c 1078     		ldrb	r0, [r2]	@ zero_extendqisi2
 545              	.LVL38:
 546              		.loc 1 587 0
 547 004e 18BF     		it	ne
 548 0050 0020     		movne	r0, #0
 549              	.LVL39:
 550              	.L41:
 588:Generated_Source\PSoC5/UART.c ****                 }
 589:Generated_Source\PSoC5/UART.c ****             }
 590:Generated_Source\PSoC5/UART.c ****         }
 591:Generated_Source\PSoC5/UART.c **** 
 592:Generated_Source\PSoC5/UART.c ****         UART_EnableRxInt();
 551              		.loc 1 592 0
 552 0052 074B     		ldr	r3, .L47+20
 553 0054 0222     		movs	r2, #2
 554 0056 1A60     		str	r2, [r3]
 593:Generated_Source\PSoC5/UART.c **** 
 594:Generated_Source\PSoC5/UART.c ****     #else
 595:Generated_Source\PSoC5/UART.c **** 
 596:Generated_Source\PSoC5/UART.c ****         rxStatus =UART_RXSTATUS_REG;
 597:Generated_Source\PSoC5/UART.c ****         if((rxStatus & UART_RX_STS_FIFO_NOTEMPTY) != 0u)
 598:Generated_Source\PSoC5/UART.c ****         {
 599:Generated_Source\PSoC5/UART.c ****             /* Read received data from FIFO */
 600:Generated_Source\PSoC5/UART.c ****             rxData = UART_RXDATA_REG;
 601:Generated_Source\PSoC5/UART.c **** 
 602:Generated_Source\PSoC5/UART.c ****             /*Check status on error*/
 603:Generated_Source\PSoC5/UART.c ****             if((rxStatus & (UART_RX_STS_BREAK | UART_RX_STS_PAR_ERROR |
 604:Generated_Source\PSoC5/UART.c ****                             UART_RX_STS_STOP_ERROR | UART_RX_STS_OVERRUN)) != 0u)
 605:Generated_Source\PSoC5/UART.c ****             {
 606:Generated_Source\PSoC5/UART.c ****                 rxData = 0u;
 607:Generated_Source\PSoC5/UART.c ****             }
 608:Generated_Source\PSoC5/UART.c ****         }
 609:Generated_Source\PSoC5/UART.c ****     #endif /* (UART_RX_INTERRUPT_ENABLED) */
 610:Generated_Source\PSoC5/UART.c **** 
 611:Generated_Source\PSoC5/UART.c ****         return(rxData);
 612:Generated_Source\PSoC5/UART.c ****     }
 555              		.loc 1 612 0
 556 0058 7047     		bx	lr
 557              	.L48:
 558 005a 00BF     		.align	2
 559              	.L47:
 560 005c 80E100E0 		.word	-536813184
ARM GAS  C:\Users\valer\AppData\Local\Temp\ccsjZDIz.s 			page 22


 561 0060 00000000 		.word	.LANCHOR0
 562 0064 00000000 		.word	UART_rxBuffer
 563 0068 69650040 		.word	1073767785
 564 006c 48650040 		.word	1073767752
 565 0070 00E100E0 		.word	-536813312
 566              		.cfi_endproc
 567              	.LFE9:
 568              		.size	UART_GetChar, .-UART_GetChar
 569              		.section	.text.UART_GetByte,"ax",%progbits
 570              		.align	1
 571              		.global	UART_GetByte
 572              		.thumb
 573              		.thumb_func
 574              		.type	UART_GetByte, %function
 575              	UART_GetByte:
 576              	.LFB10:
 613:Generated_Source\PSoC5/UART.c **** 
 614:Generated_Source\PSoC5/UART.c **** 
 615:Generated_Source\PSoC5/UART.c ****     /*******************************************************************************
 616:Generated_Source\PSoC5/UART.c ****     * Function Name: UART_GetByte
 617:Generated_Source\PSoC5/UART.c ****     ********************************************************************************
 618:Generated_Source\PSoC5/UART.c ****     *
 619:Generated_Source\PSoC5/UART.c ****     * Summary:
 620:Generated_Source\PSoC5/UART.c ****     *  Reads UART RX buffer immediately, returns received character and error
 621:Generated_Source\PSoC5/UART.c ****     *  condition.
 622:Generated_Source\PSoC5/UART.c ****     *
 623:Generated_Source\PSoC5/UART.c ****     * Parameters:
 624:Generated_Source\PSoC5/UART.c ****     *  None.
 625:Generated_Source\PSoC5/UART.c ****     *
 626:Generated_Source\PSoC5/UART.c ****     * Return:
 627:Generated_Source\PSoC5/UART.c ****     *  MSB contains status and LSB contains UART RX data. If the MSB is nonzero,
 628:Generated_Source\PSoC5/UART.c ****     *  an error has occurred.
 629:Generated_Source\PSoC5/UART.c ****     *
 630:Generated_Source\PSoC5/UART.c ****     * Reentrant:
 631:Generated_Source\PSoC5/UART.c ****     *  No.
 632:Generated_Source\PSoC5/UART.c ****     *
 633:Generated_Source\PSoC5/UART.c ****     *******************************************************************************/
 634:Generated_Source\PSoC5/UART.c ****     uint16 UART_GetByte(void) 
 635:Generated_Source\PSoC5/UART.c ****     {
 577              		.loc 1 635 0
 578              		.cfi_startproc
 579              		@ args = 0, pretend = 0, frame = 0
 580              		@ frame_needed = 0, uses_anonymous_args = 0
 581 0000 10B5     		push	{r4, lr}
 582              		.cfi_def_cfa_offset 8
 583              		.cfi_offset 4, -8
 584              		.cfi_offset 14, -4
 636:Generated_Source\PSoC5/UART.c ****         
 637:Generated_Source\PSoC5/UART.c ****     #if (UART_RX_INTERRUPT_ENABLED)
 638:Generated_Source\PSoC5/UART.c ****         uint16 locErrorStatus;
 639:Generated_Source\PSoC5/UART.c ****         /* Protect variables that could change on interrupt */
 640:Generated_Source\PSoC5/UART.c ****         UART_DisableRxInt();
 585              		.loc 1 640 0
 586 0002 074A     		ldr	r2, .L50
 587 0004 0223     		movs	r3, #2
 588 0006 1360     		str	r3, [r2]
 641:Generated_Source\PSoC5/UART.c ****         locErrorStatus = (uint16)UART_errorStatus;
ARM GAS  C:\Users\valer\AppData\Local\Temp\ccsjZDIz.s 			page 23


 589              		.loc 1 641 0
 590 0008 064A     		ldr	r2, .L50+4
 642:Generated_Source\PSoC5/UART.c ****         UART_errorStatus = 0u;
 591              		.loc 1 642 0
 592 000a 0021     		movs	r1, #0
 641:Generated_Source\PSoC5/UART.c ****         locErrorStatus = (uint16)UART_errorStatus;
 593              		.loc 1 641 0
 594 000c 1478     		ldrb	r4, [r2]	@ zero_extendqisi2
 595              	.LVL40:
 596              		.loc 1 642 0
 597 000e 1170     		strb	r1, [r2]
 643:Generated_Source\PSoC5/UART.c ****         UART_EnableRxInt();
 598              		.loc 1 643 0
 599 0010 054A     		ldr	r2, .L50+8
 600 0012 1360     		str	r3, [r2]
 644:Generated_Source\PSoC5/UART.c ****         return ( (uint16)(locErrorStatus << 8u) | UART_ReadRxData() );
 601              		.loc 1 644 0
 602 0014 FFF7FEFF 		bl	UART_ReadRxData
 603              	.LVL41:
 604 0018 40EA0420 		orr	r0, r0, r4, lsl #8
 645:Generated_Source\PSoC5/UART.c ****     #else
 646:Generated_Source\PSoC5/UART.c ****         return ( ((uint16)UART_ReadRxStatus() << 8u) | UART_ReadRxData() );
 647:Generated_Source\PSoC5/UART.c ****     #endif /* UART_RX_INTERRUPT_ENABLED */
 648:Generated_Source\PSoC5/UART.c ****         
 649:Generated_Source\PSoC5/UART.c ****     }
 605              		.loc 1 649 0
 606 001c 80B2     		uxth	r0, r0
 607 001e 10BD     		pop	{r4, pc}
 608              	.LVL42:
 609              	.L51:
 610              		.align	2
 611              	.L50:
 612 0020 80E100E0 		.word	-536813184
 613 0024 00000000 		.word	.LANCHOR0
 614 0028 00E100E0 		.word	-536813312
 615              		.cfi_endproc
 616              	.LFE10:
 617              		.size	UART_GetByte, .-UART_GetByte
 618              		.section	.text.UART_GetRxBufferSize,"ax",%progbits
 619              		.align	1
 620              		.global	UART_GetRxBufferSize
 621              		.thumb
 622              		.thumb_func
 623              		.type	UART_GetRxBufferSize, %function
 624              	UART_GetRxBufferSize:
 625              	.LFB11:
 650:Generated_Source\PSoC5/UART.c **** 
 651:Generated_Source\PSoC5/UART.c **** 
 652:Generated_Source\PSoC5/UART.c ****     /*******************************************************************************
 653:Generated_Source\PSoC5/UART.c ****     * Function Name: UART_GetRxBufferSize
 654:Generated_Source\PSoC5/UART.c ****     ********************************************************************************
 655:Generated_Source\PSoC5/UART.c ****     *
 656:Generated_Source\PSoC5/UART.c ****     * Summary:
 657:Generated_Source\PSoC5/UART.c ****     *  Returns the number of received bytes available in the RX buffer.
 658:Generated_Source\PSoC5/UART.c ****     *  * RX software buffer is disabled (RX Buffer Size parameter is equal to 4): 
 659:Generated_Source\PSoC5/UART.c ****     *    returns 0 for empty RX FIFO or 1 for not empty RX FIFO.
 660:Generated_Source\PSoC5/UART.c ****     *  * RX software buffer is enabled: returns the number of bytes available in 
ARM GAS  C:\Users\valer\AppData\Local\Temp\ccsjZDIz.s 			page 24


 661:Generated_Source\PSoC5/UART.c ****     *    the RX software buffer. Bytes available in the RX FIFO do not take to 
 662:Generated_Source\PSoC5/UART.c ****     *    account.
 663:Generated_Source\PSoC5/UART.c ****     *
 664:Generated_Source\PSoC5/UART.c ****     * Parameters:
 665:Generated_Source\PSoC5/UART.c ****     *  None.
 666:Generated_Source\PSoC5/UART.c ****     *
 667:Generated_Source\PSoC5/UART.c ****     * Return:
 668:Generated_Source\PSoC5/UART.c ****     *  uint8: Number of bytes in the RX buffer. 
 669:Generated_Source\PSoC5/UART.c ****     *    Return value type depends on RX Buffer Size parameter.
 670:Generated_Source\PSoC5/UART.c ****     *
 671:Generated_Source\PSoC5/UART.c ****     * Global Variables:
 672:Generated_Source\PSoC5/UART.c ****     *  UART_rxBufferWrite - used to calculate left bytes.
 673:Generated_Source\PSoC5/UART.c ****     *  UART_rxBufferRead - used to calculate left bytes.
 674:Generated_Source\PSoC5/UART.c ****     *  UART_rxBufferLoopDetect - checked to decide left bytes amount.
 675:Generated_Source\PSoC5/UART.c ****     *
 676:Generated_Source\PSoC5/UART.c ****     * Reentrant:
 677:Generated_Source\PSoC5/UART.c ****     *  No.
 678:Generated_Source\PSoC5/UART.c ****     *
 679:Generated_Source\PSoC5/UART.c ****     * Theory:
 680:Generated_Source\PSoC5/UART.c ****     *  Allows the user to find out how full the RX Buffer is.
 681:Generated_Source\PSoC5/UART.c ****     *
 682:Generated_Source\PSoC5/UART.c ****     *******************************************************************************/
 683:Generated_Source\PSoC5/UART.c ****     uint8 UART_GetRxBufferSize(void)
 684:Generated_Source\PSoC5/UART.c ****                                                             
 685:Generated_Source\PSoC5/UART.c ****     {
 626              		.loc 1 685 0
 627              		.cfi_startproc
 628              		@ args = 0, pretend = 0, frame = 0
 629              		@ frame_needed = 0, uses_anonymous_args = 0
 630              		@ link register save eliminated.
 686:Generated_Source\PSoC5/UART.c ****         uint8 size;
 687:Generated_Source\PSoC5/UART.c **** 
 688:Generated_Source\PSoC5/UART.c ****     #if (UART_RX_INTERRUPT_ENABLED)
 689:Generated_Source\PSoC5/UART.c **** 
 690:Generated_Source\PSoC5/UART.c ****         /* Protect variables that could change on interrupt */
 691:Generated_Source\PSoC5/UART.c ****         UART_DisableRxInt();
 631              		.loc 1 691 0
 632 0000 0F4B     		ldr	r3, .L58
 633 0002 0222     		movs	r2, #2
 634 0004 1A60     		str	r2, [r3]
 692:Generated_Source\PSoC5/UART.c **** 
 693:Generated_Source\PSoC5/UART.c ****         if(UART_rxBufferRead == UART_rxBufferWrite)
 635              		.loc 1 693 0
 636 0006 0F4A     		ldr	r2, .L58+4
 637 0008 9178     		ldrb	r1, [r2, #2]	@ zero_extendqisi2
 638 000a D378     		ldrb	r3, [r2, #3]	@ zero_extendqisi2
 639 000c 9942     		cmp	r1, r3
 640 000e 05D1     		bne	.L53
 694:Generated_Source\PSoC5/UART.c ****         {
 695:Generated_Source\PSoC5/UART.c ****             if(UART_rxBufferLoopDetect != 0u)
 641              		.loc 1 695 0
 642 0010 1379     		ldrb	r3, [r2, #4]	@ zero_extendqisi2
 643 0012 002B     		cmp	r3, #0
 696:Generated_Source\PSoC5/UART.c ****             {
 697:Generated_Source\PSoC5/UART.c ****                 size = UART_RX_BUFFER_SIZE;
 698:Generated_Source\PSoC5/UART.c ****             }
 699:Generated_Source\PSoC5/UART.c ****             else
ARM GAS  C:\Users\valer\AppData\Local\Temp\ccsjZDIz.s 			page 25


 700:Generated_Source\PSoC5/UART.c ****             {
 701:Generated_Source\PSoC5/UART.c ****                 size = 0u;
 644              		.loc 1 701 0
 645 0014 14BF     		ite	ne
 646 0016 0820     		movne	r0, #8
 647 0018 0020     		moveq	r0, #0
 648 001a 0CE0     		b	.L54
 649              	.L53:
 702:Generated_Source\PSoC5/UART.c ****             }
 703:Generated_Source\PSoC5/UART.c ****         }
 704:Generated_Source\PSoC5/UART.c ****         else if(UART_rxBufferRead < UART_rxBufferWrite)
 650              		.loc 1 704 0
 651 001c 9178     		ldrb	r1, [r2, #2]	@ zero_extendqisi2
 652 001e D378     		ldrb	r3, [r2, #3]	@ zero_extendqisi2
 653 0020 9942     		cmp	r1, r3
 705:Generated_Source\PSoC5/UART.c ****         {
 706:Generated_Source\PSoC5/UART.c ****             size = (UART_rxBufferWrite - UART_rxBufferRead);
 707:Generated_Source\PSoC5/UART.c ****         }
 708:Generated_Source\PSoC5/UART.c ****         else
 709:Generated_Source\PSoC5/UART.c ****         {
 710:Generated_Source\PSoC5/UART.c ****             size = (UART_RX_BUFFER_SIZE - UART_rxBufferRead) + UART_rxBufferWrite;
 654              		.loc 1 710 0
 655 0022 2BBF     		itete	cs
 656 0024 D078     		ldrbcs	r0, [r2, #3]	@ zero_extendqisi2
 706:Generated_Source\PSoC5/UART.c ****         }
 657              		.loc 1 706 0
 658 0026 D378     		ldrbcc	r3, [r2, #3]	@ zero_extendqisi2
 659              		.loc 1 710 0
 660 0028 9378     		ldrbcs	r3, [r2, #2]	@ zero_extendqisi2
 706:Generated_Source\PSoC5/UART.c ****         }
 661              		.loc 1 706 0
 662 002a 9078     		ldrbcc	r0, [r2, #2]	@ zero_extendqisi2
 663              		.loc 1 710 0
 664 002c 2ABF     		itet	cs
 665 002e 0830     		addcs	r0, r0, #8
 706:Generated_Source\PSoC5/UART.c ****         }
 666              		.loc 1 706 0
 667 0030 181A     		subcc	r0, r3, r0
 668              		.loc 1 710 0
 669 0032 C01A     		subcs	r0, r0, r3
 670 0034 C0B2     		uxtb	r0, r0
 671              	.LVL43:
 672              	.L54:
 711:Generated_Source\PSoC5/UART.c ****         }
 712:Generated_Source\PSoC5/UART.c **** 
 713:Generated_Source\PSoC5/UART.c ****         UART_EnableRxInt();
 673              		.loc 1 713 0
 674 0036 044B     		ldr	r3, .L58+8
 675 0038 0222     		movs	r2, #2
 676 003a 1A60     		str	r2, [r3]
 714:Generated_Source\PSoC5/UART.c **** 
 715:Generated_Source\PSoC5/UART.c ****     #else
 716:Generated_Source\PSoC5/UART.c **** 
 717:Generated_Source\PSoC5/UART.c ****         /* We can only know if there is data in the fifo. */
 718:Generated_Source\PSoC5/UART.c ****         size = ((UART_RXSTATUS_REG & UART_RX_STS_FIFO_NOTEMPTY) != 0u) ? 1u : 0u;
 719:Generated_Source\PSoC5/UART.c **** 
 720:Generated_Source\PSoC5/UART.c ****     #endif /* (UART_RX_INTERRUPT_ENABLED) */
ARM GAS  C:\Users\valer\AppData\Local\Temp\ccsjZDIz.s 			page 26


 721:Generated_Source\PSoC5/UART.c **** 
 722:Generated_Source\PSoC5/UART.c ****         return(size);
 723:Generated_Source\PSoC5/UART.c ****     }
 677              		.loc 1 723 0
 678 003c 7047     		bx	lr
 679              	.L59:
 680 003e 00BF     		.align	2
 681              	.L58:
 682 0040 80E100E0 		.word	-536813184
 683 0044 00000000 		.word	.LANCHOR0
 684 0048 00E100E0 		.word	-536813312
 685              		.cfi_endproc
 686              	.LFE11:
 687              		.size	UART_GetRxBufferSize, .-UART_GetRxBufferSize
 688              		.section	.text.UART_ClearRxBuffer,"ax",%progbits
 689              		.align	1
 690              		.global	UART_ClearRxBuffer
 691              		.thumb
 692              		.thumb_func
 693              		.type	UART_ClearRxBuffer, %function
 694              	UART_ClearRxBuffer:
 695              	.LFB12:
 724:Generated_Source\PSoC5/UART.c **** 
 725:Generated_Source\PSoC5/UART.c **** 
 726:Generated_Source\PSoC5/UART.c ****     /*******************************************************************************
 727:Generated_Source\PSoC5/UART.c ****     * Function Name: UART_ClearRxBuffer
 728:Generated_Source\PSoC5/UART.c ****     ********************************************************************************
 729:Generated_Source\PSoC5/UART.c ****     *
 730:Generated_Source\PSoC5/UART.c ****     * Summary:
 731:Generated_Source\PSoC5/UART.c ****     *  Clears the receiver memory buffer and hardware RX FIFO of all received data.
 732:Generated_Source\PSoC5/UART.c ****     *
 733:Generated_Source\PSoC5/UART.c ****     * Parameters:
 734:Generated_Source\PSoC5/UART.c ****     *  None.
 735:Generated_Source\PSoC5/UART.c ****     *
 736:Generated_Source\PSoC5/UART.c ****     * Return:
 737:Generated_Source\PSoC5/UART.c ****     *  None.
 738:Generated_Source\PSoC5/UART.c ****     *
 739:Generated_Source\PSoC5/UART.c ****     * Global Variables:
 740:Generated_Source\PSoC5/UART.c ****     *  UART_rxBufferWrite - cleared to zero.
 741:Generated_Source\PSoC5/UART.c ****     *  UART_rxBufferRead - cleared to zero.
 742:Generated_Source\PSoC5/UART.c ****     *  UART_rxBufferLoopDetect - cleared to zero.
 743:Generated_Source\PSoC5/UART.c ****     *  UART_rxBufferOverflow - cleared to zero.
 744:Generated_Source\PSoC5/UART.c ****     *
 745:Generated_Source\PSoC5/UART.c ****     * Reentrant:
 746:Generated_Source\PSoC5/UART.c ****     *  No.
 747:Generated_Source\PSoC5/UART.c ****     *
 748:Generated_Source\PSoC5/UART.c ****     * Theory:
 749:Generated_Source\PSoC5/UART.c ****     *  Setting the pointers to zero makes the system believe there is no data to
 750:Generated_Source\PSoC5/UART.c ****     *  read and writing will resume at address 0 overwriting any data that may
 751:Generated_Source\PSoC5/UART.c ****     *  have remained in the RAM.
 752:Generated_Source\PSoC5/UART.c ****     *
 753:Generated_Source\PSoC5/UART.c ****     * Side Effects:
 754:Generated_Source\PSoC5/UART.c ****     *  Any received data not read from the RAM or FIFO buffer will be lost.
 755:Generated_Source\PSoC5/UART.c ****     *
 756:Generated_Source\PSoC5/UART.c ****     *******************************************************************************/
 757:Generated_Source\PSoC5/UART.c ****     void UART_ClearRxBuffer(void) 
 758:Generated_Source\PSoC5/UART.c ****     {
ARM GAS  C:\Users\valer\AppData\Local\Temp\ccsjZDIz.s 			page 27


 696              		.loc 1 758 0
 697              		.cfi_startproc
 698              		@ args = 0, pretend = 0, frame = 0
 699              		@ frame_needed = 0, uses_anonymous_args = 0
 700 0000 08B5     		push	{r3, lr}
 701              		.cfi_def_cfa_offset 8
 702              		.cfi_offset 3, -8
 703              		.cfi_offset 14, -4
 759:Generated_Source\PSoC5/UART.c ****         uint8 enableInterrupts;
 760:Generated_Source\PSoC5/UART.c **** 
 761:Generated_Source\PSoC5/UART.c ****         /* Clear the HW FIFO */
 762:Generated_Source\PSoC5/UART.c ****         enableInterrupts = CyEnterCriticalSection();
 704              		.loc 1 762 0
 705 0002 FFF7FEFF 		bl	CyEnterCriticalSection
 706              	.LVL44:
 763:Generated_Source\PSoC5/UART.c ****         UART_RXDATA_AUX_CTL_REG |= (uint8)  UART_RX_FIFO_CLR;
 707              		.loc 1 763 0
 708 0006 0B4B     		ldr	r3, .L61
 709 0008 1A78     		ldrb	r2, [r3]	@ zero_extendqisi2
 710 000a 42F00102 		orr	r2, r2, #1
 711 000e 1A70     		strb	r2, [r3]
 764:Generated_Source\PSoC5/UART.c ****         UART_RXDATA_AUX_CTL_REG &= (uint8) ~UART_RX_FIFO_CLR;
 712              		.loc 1 764 0
 713 0010 1A78     		ldrb	r2, [r3]	@ zero_extendqisi2
 714 0012 02F0FE02 		and	r2, r2, #254
 715 0016 1A70     		strb	r2, [r3]
 765:Generated_Source\PSoC5/UART.c ****         CyExitCriticalSection(enableInterrupts);
 716              		.loc 1 765 0
 717 0018 FFF7FEFF 		bl	CyExitCriticalSection
 718              	.LVL45:
 766:Generated_Source\PSoC5/UART.c **** 
 767:Generated_Source\PSoC5/UART.c ****     #if (UART_RX_INTERRUPT_ENABLED)
 768:Generated_Source\PSoC5/UART.c **** 
 769:Generated_Source\PSoC5/UART.c ****         /* Protect variables that could change on interrupt. */
 770:Generated_Source\PSoC5/UART.c ****         UART_DisableRxInt();
 719              		.loc 1 770 0
 720 001c 064B     		ldr	r3, .L61+4
 721 001e 0221     		movs	r1, #2
 722 0020 1960     		str	r1, [r3]
 771:Generated_Source\PSoC5/UART.c **** 
 772:Generated_Source\PSoC5/UART.c ****         UART_rxBufferRead = 0u;
 723              		.loc 1 772 0
 724 0022 064B     		ldr	r3, .L61+8
 725 0024 0022     		movs	r2, #0
 726 0026 9A70     		strb	r2, [r3, #2]
 773:Generated_Source\PSoC5/UART.c ****         UART_rxBufferWrite = 0u;
 727              		.loc 1 773 0
 728 0028 DA70     		strb	r2, [r3, #3]
 774:Generated_Source\PSoC5/UART.c ****         UART_rxBufferLoopDetect = 0u;
 729              		.loc 1 774 0
 730 002a 1A71     		strb	r2, [r3, #4]
 775:Generated_Source\PSoC5/UART.c ****         UART_rxBufferOverflow = 0u;
 731              		.loc 1 775 0
 732 002c 5A71     		strb	r2, [r3, #5]
 776:Generated_Source\PSoC5/UART.c **** 
 777:Generated_Source\PSoC5/UART.c ****         UART_EnableRxInt();
 733              		.loc 1 777 0
ARM GAS  C:\Users\valer\AppData\Local\Temp\ccsjZDIz.s 			page 28


 734 002e 044B     		ldr	r3, .L61+12
 735 0030 1960     		str	r1, [r3]
 736 0032 08BD     		pop	{r3, pc}
 737              	.L62:
 738              		.align	2
 739              	.L61:
 740 0034 98650040 		.word	1073767832
 741 0038 80E100E0 		.word	-536813184
 742 003c 00000000 		.word	.LANCHOR0
 743 0040 00E100E0 		.word	-536813312
 744              		.cfi_endproc
 745              	.LFE12:
 746              		.size	UART_ClearRxBuffer, .-UART_ClearRxBuffer
 747              		.section	.text.UART_SetRxAddressMode,"ax",%progbits
 748              		.align	1
 749              		.global	UART_SetRxAddressMode
 750              		.thumb
 751              		.thumb_func
 752              		.type	UART_SetRxAddressMode, %function
 753              	UART_SetRxAddressMode:
 754              	.LFB28:
 755              		.cfi_startproc
 756              		@ args = 0, pretend = 0, frame = 0
 757              		@ frame_needed = 0, uses_anonymous_args = 0
 758              		@ link register save eliminated.
 759 0000 7047     		bx	lr
 760              		.cfi_endproc
 761              	.LFE28:
 762              		.size	UART_SetRxAddressMode, .-UART_SetRxAddressMode
 763              		.section	.text.UART_SetRxAddress1,"ax",%progbits
 764              		.align	1
 765              		.global	UART_SetRxAddress1
 766              		.thumb
 767              		.thumb_func
 768              		.type	UART_SetRxAddress1, %function
 769              	UART_SetRxAddress1:
 770              	.LFB14:
 778:Generated_Source\PSoC5/UART.c **** 
 779:Generated_Source\PSoC5/UART.c ****     #endif /* (UART_RX_INTERRUPT_ENABLED) */
 780:Generated_Source\PSoC5/UART.c **** 
 781:Generated_Source\PSoC5/UART.c ****     }
 782:Generated_Source\PSoC5/UART.c **** 
 783:Generated_Source\PSoC5/UART.c **** 
 784:Generated_Source\PSoC5/UART.c ****     /*******************************************************************************
 785:Generated_Source\PSoC5/UART.c ****     * Function Name: UART_SetRxAddressMode
 786:Generated_Source\PSoC5/UART.c ****     ********************************************************************************
 787:Generated_Source\PSoC5/UART.c ****     *
 788:Generated_Source\PSoC5/UART.c ****     * Summary:
 789:Generated_Source\PSoC5/UART.c ****     *  Sets the software controlled Addressing mode used by the RX portion of the
 790:Generated_Source\PSoC5/UART.c ****     *  UART.
 791:Generated_Source\PSoC5/UART.c ****     *
 792:Generated_Source\PSoC5/UART.c ****     * Parameters:
 793:Generated_Source\PSoC5/UART.c ****     *  addressMode: Enumerated value indicating the mode of RX addressing
 794:Generated_Source\PSoC5/UART.c ****     *  UART__B_UART__AM_SW_BYTE_BYTE -  Software Byte-by-Byte address
 795:Generated_Source\PSoC5/UART.c ****     *                                               detection
 796:Generated_Source\PSoC5/UART.c ****     *  UART__B_UART__AM_SW_DETECT_TO_BUFFER - Software Detect to Buffer
 797:Generated_Source\PSoC5/UART.c ****     *                                               address detection
ARM GAS  C:\Users\valer\AppData\Local\Temp\ccsjZDIz.s 			page 29


 798:Generated_Source\PSoC5/UART.c ****     *  UART__B_UART__AM_HW_BYTE_BY_BYTE - Hardware Byte-by-Byte address
 799:Generated_Source\PSoC5/UART.c ****     *                                               detection
 800:Generated_Source\PSoC5/UART.c ****     *  UART__B_UART__AM_HW_DETECT_TO_BUFFER - Hardware Detect to Buffer
 801:Generated_Source\PSoC5/UART.c ****     *                                               address detection
 802:Generated_Source\PSoC5/UART.c ****     *  UART__B_UART__AM_NONE - No address detection
 803:Generated_Source\PSoC5/UART.c ****     *
 804:Generated_Source\PSoC5/UART.c ****     * Return:
 805:Generated_Source\PSoC5/UART.c ****     *  None.
 806:Generated_Source\PSoC5/UART.c ****     *
 807:Generated_Source\PSoC5/UART.c ****     * Global Variables:
 808:Generated_Source\PSoC5/UART.c ****     *  UART_rxAddressMode - the parameter stored in this variable for
 809:Generated_Source\PSoC5/UART.c ****     *   the farther usage in RX ISR.
 810:Generated_Source\PSoC5/UART.c ****     *  UART_rxAddressDetected - set to initial state (0).
 811:Generated_Source\PSoC5/UART.c ****     *
 812:Generated_Source\PSoC5/UART.c ****     *******************************************************************************/
 813:Generated_Source\PSoC5/UART.c ****     void UART_SetRxAddressMode(uint8 addressMode)
 814:Generated_Source\PSoC5/UART.c ****                                                         
 815:Generated_Source\PSoC5/UART.c ****     {
 816:Generated_Source\PSoC5/UART.c ****         #if(UART_RXHW_ADDRESS_ENABLED)
 817:Generated_Source\PSoC5/UART.c ****             #if(UART_CONTROL_REG_REMOVED)
 818:Generated_Source\PSoC5/UART.c ****                 if(0u != addressMode)
 819:Generated_Source\PSoC5/UART.c ****                 {
 820:Generated_Source\PSoC5/UART.c ****                     /* Suppress compiler warning */
 821:Generated_Source\PSoC5/UART.c ****                 }
 822:Generated_Source\PSoC5/UART.c ****             #else /* UART_CONTROL_REG_REMOVED */
 823:Generated_Source\PSoC5/UART.c ****                 uint8 tmpCtrl;
 824:Generated_Source\PSoC5/UART.c ****                 tmpCtrl = UART_CONTROL_REG & (uint8)~UART_CTRL_RXADDR_MODE_MASK;
 825:Generated_Source\PSoC5/UART.c ****                 tmpCtrl |= (uint8)(addressMode << UART_CTRL_RXADDR_MODE0_SHIFT);
 826:Generated_Source\PSoC5/UART.c ****                 UART_CONTROL_REG = tmpCtrl;
 827:Generated_Source\PSoC5/UART.c **** 
 828:Generated_Source\PSoC5/UART.c ****                 #if(UART_RX_INTERRUPT_ENABLED && \
 829:Generated_Source\PSoC5/UART.c ****                    (UART_RXBUFFERSIZE > UART_FIFO_LENGTH) )
 830:Generated_Source\PSoC5/UART.c ****                     UART_rxAddressMode = addressMode;
 831:Generated_Source\PSoC5/UART.c ****                     UART_rxAddressDetected = 0u;
 832:Generated_Source\PSoC5/UART.c ****                 #endif /* End UART_RXBUFFERSIZE > UART_FIFO_LENGTH*/
 833:Generated_Source\PSoC5/UART.c ****             #endif /* End UART_CONTROL_REG_REMOVED */
 834:Generated_Source\PSoC5/UART.c ****         #else /* UART_RXHW_ADDRESS_ENABLED */
 835:Generated_Source\PSoC5/UART.c ****             if(0u != addressMode)
 836:Generated_Source\PSoC5/UART.c ****             {
 837:Generated_Source\PSoC5/UART.c ****                 /* Suppress compiler warning */
 838:Generated_Source\PSoC5/UART.c ****             }
 839:Generated_Source\PSoC5/UART.c ****         #endif /* End UART_RXHW_ADDRESS_ENABLED */
 840:Generated_Source\PSoC5/UART.c ****     }
 841:Generated_Source\PSoC5/UART.c **** 
 842:Generated_Source\PSoC5/UART.c **** 
 843:Generated_Source\PSoC5/UART.c ****     /*******************************************************************************
 844:Generated_Source\PSoC5/UART.c ****     * Function Name: UART_SetRxAddress1
 845:Generated_Source\PSoC5/UART.c ****     ********************************************************************************
 846:Generated_Source\PSoC5/UART.c ****     *
 847:Generated_Source\PSoC5/UART.c ****     * Summary:
 848:Generated_Source\PSoC5/UART.c ****     *  Sets the first of two hardware-detectable receiver addresses.
 849:Generated_Source\PSoC5/UART.c ****     *
 850:Generated_Source\PSoC5/UART.c ****     * Parameters:
 851:Generated_Source\PSoC5/UART.c ****     *  address: Address #1 for hardware address detection.
 852:Generated_Source\PSoC5/UART.c ****     *
 853:Generated_Source\PSoC5/UART.c ****     * Return:
 854:Generated_Source\PSoC5/UART.c ****     *  None.
ARM GAS  C:\Users\valer\AppData\Local\Temp\ccsjZDIz.s 			page 30


 855:Generated_Source\PSoC5/UART.c ****     *
 856:Generated_Source\PSoC5/UART.c ****     *******************************************************************************/
 857:Generated_Source\PSoC5/UART.c ****     void UART_SetRxAddress1(uint8 address) 
 858:Generated_Source\PSoC5/UART.c ****     {
 771              		.loc 1 858 0
 772              		.cfi_startproc
 773              		@ args = 0, pretend = 0, frame = 0
 774              		@ frame_needed = 0, uses_anonymous_args = 0
 775              		@ link register save eliminated.
 776              	.LVL46:
 859:Generated_Source\PSoC5/UART.c ****         UART_RXADDRESS1_REG = address;
 777              		.loc 1 859 0
 778 0000 014B     		ldr	r3, .L65
 779 0002 1870     		strb	r0, [r3]
 780 0004 7047     		bx	lr
 781              	.L66:
 782 0006 00BF     		.align	2
 783              	.L65:
 784 0008 28650040 		.word	1073767720
 785              		.cfi_endproc
 786              	.LFE14:
 787              		.size	UART_SetRxAddress1, .-UART_SetRxAddress1
 788              		.section	.text.UART_SetRxAddress2,"ax",%progbits
 789              		.align	1
 790              		.global	UART_SetRxAddress2
 791              		.thumb
 792              		.thumb_func
 793              		.type	UART_SetRxAddress2, %function
 794              	UART_SetRxAddress2:
 795              	.LFB15:
 860:Generated_Source\PSoC5/UART.c ****     }
 861:Generated_Source\PSoC5/UART.c **** 
 862:Generated_Source\PSoC5/UART.c **** 
 863:Generated_Source\PSoC5/UART.c ****     /*******************************************************************************
 864:Generated_Source\PSoC5/UART.c ****     * Function Name: UART_SetRxAddress2
 865:Generated_Source\PSoC5/UART.c ****     ********************************************************************************
 866:Generated_Source\PSoC5/UART.c ****     *
 867:Generated_Source\PSoC5/UART.c ****     * Summary:
 868:Generated_Source\PSoC5/UART.c ****     *  Sets the second of two hardware-detectable receiver addresses.
 869:Generated_Source\PSoC5/UART.c ****     *
 870:Generated_Source\PSoC5/UART.c ****     * Parameters:
 871:Generated_Source\PSoC5/UART.c ****     *  address: Address #2 for hardware address detection.
 872:Generated_Source\PSoC5/UART.c ****     *
 873:Generated_Source\PSoC5/UART.c ****     * Return:
 874:Generated_Source\PSoC5/UART.c ****     *  None.
 875:Generated_Source\PSoC5/UART.c ****     *
 876:Generated_Source\PSoC5/UART.c ****     *******************************************************************************/
 877:Generated_Source\PSoC5/UART.c ****     void UART_SetRxAddress2(uint8 address) 
 878:Generated_Source\PSoC5/UART.c ****     {
 796              		.loc 1 878 0
 797              		.cfi_startproc
 798              		@ args = 0, pretend = 0, frame = 0
 799              		@ frame_needed = 0, uses_anonymous_args = 0
 800              		@ link register save eliminated.
 801              	.LVL47:
 879:Generated_Source\PSoC5/UART.c ****         UART_RXADDRESS2_REG = address;
 802              		.loc 1 879 0
ARM GAS  C:\Users\valer\AppData\Local\Temp\ccsjZDIz.s 			page 31


 803 0000 014B     		ldr	r3, .L68
 804 0002 1870     		strb	r0, [r3]
 805 0004 7047     		bx	lr
 806              	.L69:
 807 0006 00BF     		.align	2
 808              	.L68:
 809 0008 38650040 		.word	1073767736
 810              		.cfi_endproc
 811              	.LFE15:
 812              		.size	UART_SetRxAddress2, .-UART_SetRxAddress2
 813              		.section	.text.UART_SetTxInterruptMode,"ax",%progbits
 814              		.align	1
 815              		.global	UART_SetTxInterruptMode
 816              		.thumb
 817              		.thumb_func
 818              		.type	UART_SetTxInterruptMode, %function
 819              	UART_SetTxInterruptMode:
 820              	.LFB16:
 880:Generated_Source\PSoC5/UART.c ****     }
 881:Generated_Source\PSoC5/UART.c **** 
 882:Generated_Source\PSoC5/UART.c **** #endif  /* UART_RX_ENABLED || UART_HD_ENABLED*/
 883:Generated_Source\PSoC5/UART.c **** 
 884:Generated_Source\PSoC5/UART.c **** 
 885:Generated_Source\PSoC5/UART.c **** #if( (UART_TX_ENABLED) || (UART_HD_ENABLED) )
 886:Generated_Source\PSoC5/UART.c ****     /*******************************************************************************
 887:Generated_Source\PSoC5/UART.c ****     * Function Name: UART_SetTxInterruptMode
 888:Generated_Source\PSoC5/UART.c ****     ********************************************************************************
 889:Generated_Source\PSoC5/UART.c ****     *
 890:Generated_Source\PSoC5/UART.c ****     * Summary:
 891:Generated_Source\PSoC5/UART.c ****     *  Configures the TX interrupt sources to be enabled, but does not enable the
 892:Generated_Source\PSoC5/UART.c ****     *  interrupt.
 893:Generated_Source\PSoC5/UART.c ****     *
 894:Generated_Source\PSoC5/UART.c ****     * Parameters:
 895:Generated_Source\PSoC5/UART.c ****     *  intSrc: Bit field containing the TX interrupt sources to enable
 896:Generated_Source\PSoC5/UART.c ****     *   UART_TX_STS_COMPLETE        Interrupt on TX byte complete
 897:Generated_Source\PSoC5/UART.c ****     *   UART_TX_STS_FIFO_EMPTY      Interrupt when TX FIFO is empty
 898:Generated_Source\PSoC5/UART.c ****     *   UART_TX_STS_FIFO_FULL       Interrupt when TX FIFO is full
 899:Generated_Source\PSoC5/UART.c ****     *   UART_TX_STS_FIFO_NOT_FULL   Interrupt when TX FIFO is not full
 900:Generated_Source\PSoC5/UART.c ****     *
 901:Generated_Source\PSoC5/UART.c ****     * Return:
 902:Generated_Source\PSoC5/UART.c ****     *  None.
 903:Generated_Source\PSoC5/UART.c ****     *
 904:Generated_Source\PSoC5/UART.c ****     * Theory:
 905:Generated_Source\PSoC5/UART.c ****     *  Enables the output of specific status bits to the interrupt controller
 906:Generated_Source\PSoC5/UART.c ****     *
 907:Generated_Source\PSoC5/UART.c ****     *******************************************************************************/
 908:Generated_Source\PSoC5/UART.c ****     void UART_SetTxInterruptMode(uint8 intSrc) 
 909:Generated_Source\PSoC5/UART.c ****     {
 821              		.loc 1 909 0
 822              		.cfi_startproc
 823              		@ args = 0, pretend = 0, frame = 0
 824              		@ frame_needed = 0, uses_anonymous_args = 0
 825              		@ link register save eliminated.
 826              	.LVL48:
 910:Generated_Source\PSoC5/UART.c ****         UART_TXSTATUS_MASK_REG = intSrc;
 827              		.loc 1 910 0
 828 0000 014B     		ldr	r3, .L71
ARM GAS  C:\Users\valer\AppData\Local\Temp\ccsjZDIz.s 			page 32


 829 0002 1870     		strb	r0, [r3]
 830 0004 7047     		bx	lr
 831              	.L72:
 832 0006 00BF     		.align	2
 833              	.L71:
 834 0008 8B650040 		.word	1073767819
 835              		.cfi_endproc
 836              	.LFE16:
 837              		.size	UART_SetTxInterruptMode, .-UART_SetTxInterruptMode
 838              		.section	.text.UART_WriteTxData,"ax",%progbits
 839              		.align	1
 840              		.global	UART_WriteTxData
 841              		.thumb
 842              		.thumb_func
 843              		.type	UART_WriteTxData, %function
 844              	UART_WriteTxData:
 845              	.LFB17:
 911:Generated_Source\PSoC5/UART.c ****     }
 912:Generated_Source\PSoC5/UART.c **** 
 913:Generated_Source\PSoC5/UART.c **** 
 914:Generated_Source\PSoC5/UART.c ****     /*******************************************************************************
 915:Generated_Source\PSoC5/UART.c ****     * Function Name: UART_WriteTxData
 916:Generated_Source\PSoC5/UART.c ****     ********************************************************************************
 917:Generated_Source\PSoC5/UART.c ****     *
 918:Generated_Source\PSoC5/UART.c ****     * Summary:
 919:Generated_Source\PSoC5/UART.c ****     *  Places a byte of data into the transmit buffer to be sent when the bus is
 920:Generated_Source\PSoC5/UART.c ****     *  available without checking the TX status register. You must check status
 921:Generated_Source\PSoC5/UART.c ****     *  separately.
 922:Generated_Source\PSoC5/UART.c ****     *
 923:Generated_Source\PSoC5/UART.c ****     * Parameters:
 924:Generated_Source\PSoC5/UART.c ****     *  txDataByte: data byte
 925:Generated_Source\PSoC5/UART.c ****     *
 926:Generated_Source\PSoC5/UART.c ****     * Return:
 927:Generated_Source\PSoC5/UART.c ****     * None.
 928:Generated_Source\PSoC5/UART.c ****     *
 929:Generated_Source\PSoC5/UART.c ****     * Global Variables:
 930:Generated_Source\PSoC5/UART.c ****     *  UART_txBuffer - RAM buffer pointer for save data for transmission
 931:Generated_Source\PSoC5/UART.c ****     *  UART_txBufferWrite - cyclic index for write to txBuffer,
 932:Generated_Source\PSoC5/UART.c ****     *    incremented after each byte saved to buffer.
 933:Generated_Source\PSoC5/UART.c ****     *  UART_txBufferRead - cyclic index for read from txBuffer,
 934:Generated_Source\PSoC5/UART.c ****     *    checked to identify the condition to write to FIFO directly or to TX buffer
 935:Generated_Source\PSoC5/UART.c ****     *  UART_initVar - checked to identify that the component has been
 936:Generated_Source\PSoC5/UART.c ****     *    initialized.
 937:Generated_Source\PSoC5/UART.c ****     *
 938:Generated_Source\PSoC5/UART.c ****     * Reentrant:
 939:Generated_Source\PSoC5/UART.c ****     *  No.
 940:Generated_Source\PSoC5/UART.c ****     *
 941:Generated_Source\PSoC5/UART.c ****     *******************************************************************************/
 942:Generated_Source\PSoC5/UART.c ****     void UART_WriteTxData(uint8 txDataByte) 
 943:Generated_Source\PSoC5/UART.c ****     {
 846              		.loc 1 943 0
 847              		.cfi_startproc
 848              		@ args = 0, pretend = 0, frame = 0
 849              		@ frame_needed = 0, uses_anonymous_args = 0
 850              	.LVL49:
 851 0000 10B5     		push	{r4, lr}
 852              		.cfi_def_cfa_offset 8
ARM GAS  C:\Users\valer\AppData\Local\Temp\ccsjZDIz.s 			page 33


 853              		.cfi_offset 4, -8
 854              		.cfi_offset 14, -4
 944:Generated_Source\PSoC5/UART.c ****         /* If not Initialized then skip this function*/
 945:Generated_Source\PSoC5/UART.c ****         if(UART_initVar != 0u)
 855              		.loc 1 945 0
 856 0002 0F4B     		ldr	r3, .L81
 857 0004 5978     		ldrb	r1, [r3, #1]	@ zero_extendqisi2
 858 0006 1A46     		mov	r2, r3
 859 0008 C9B1     		cbz	r1, .L73
 946:Generated_Source\PSoC5/UART.c ****         {
 947:Generated_Source\PSoC5/UART.c ****         #if (UART_TX_INTERRUPT_ENABLED)
 948:Generated_Source\PSoC5/UART.c **** 
 949:Generated_Source\PSoC5/UART.c ****             /* Protect variables that could change on interrupt. */
 950:Generated_Source\PSoC5/UART.c ****             UART_DisableTxInt();
 860              		.loc 1 950 0
 861 000a 0E49     		ldr	r1, .L81+4
 862 000c 0424     		movs	r4, #4
 863 000e 0C60     		str	r4, [r1]
 951:Generated_Source\PSoC5/UART.c **** 
 952:Generated_Source\PSoC5/UART.c ****             if( (UART_txBufferRead == UART_txBufferWrite) &&
 864              		.loc 1 952 0
 865 0010 9979     		ldrb	r1, [r3, #6]	@ zero_extendqisi2
 866 0012 DB79     		ldrb	r3, [r3, #7]	@ zero_extendqisi2
 867 0014 9942     		cmp	r1, r3
 868 0016 06D1     		bne	.L75
 953:Generated_Source\PSoC5/UART.c ****                 ((UART_TXSTATUS_REG & UART_TX_STS_FIFO_FULL) == 0u) )
 869              		.loc 1 953 0 discriminator 1
 870 0018 0B49     		ldr	r1, .L81+8
 871 001a 0978     		ldrb	r1, [r1]	@ zero_extendqisi2
 952:Generated_Source\PSoC5/UART.c ****                 ((UART_TXSTATUS_REG & UART_TX_STS_FIFO_FULL) == 0u) )
 872              		.loc 1 952 0 discriminator 1
 873 001c 4907     		lsls	r1, r1, #29
 874 001e 02D4     		bmi	.L75
 954:Generated_Source\PSoC5/UART.c ****             {
 955:Generated_Source\PSoC5/UART.c ****                 /* Add directly to the FIFO. */
 956:Generated_Source\PSoC5/UART.c ****                 UART_TXDATA_REG = txDataByte;
 875              		.loc 1 956 0
 876 0020 0A4B     		ldr	r3, .L81+12
 877 0022 1870     		strb	r0, [r3]
 878 0024 08E0     		b	.L76
 879              	.L75:
 957:Generated_Source\PSoC5/UART.c ****             }
 958:Generated_Source\PSoC5/UART.c ****             else
 959:Generated_Source\PSoC5/UART.c ****             {
 960:Generated_Source\PSoC5/UART.c ****                 if(UART_txBufferWrite >= UART_TX_BUFFER_SIZE)
 880              		.loc 1 960 0
 881 0026 072B     		cmp	r3, #7
 961:Generated_Source\PSoC5/UART.c ****                 {
 962:Generated_Source\PSoC5/UART.c ****                     UART_txBufferWrite = 0u;
 882              		.loc 1 962 0
 883 0028 84BF     		itt	hi
 884 002a 0023     		movhi	r3, #0
 885 002c D371     		strbhi	r3, [r2, #7]
 963:Generated_Source\PSoC5/UART.c ****                 }
 964:Generated_Source\PSoC5/UART.c **** 
 965:Generated_Source\PSoC5/UART.c ****                 UART_txBuffer[UART_txBufferWrite] = txDataByte;
 886              		.loc 1 965 0
ARM GAS  C:\Users\valer\AppData\Local\Temp\ccsjZDIz.s 			page 34


 887 002e D379     		ldrb	r3, [r2, #7]	@ zero_extendqisi2
 888 0030 0749     		ldr	r1, .L81+16
 889 0032 C854     		strb	r0, [r1, r3]
 966:Generated_Source\PSoC5/UART.c **** 
 967:Generated_Source\PSoC5/UART.c ****                 /* Add to the software buffer. */
 968:Generated_Source\PSoC5/UART.c ****                 UART_txBufferWrite++;
 890              		.loc 1 968 0
 891 0034 0133     		adds	r3, r3, #1
 892 0036 D371     		strb	r3, [r2, #7]
 893              	.L76:
 969:Generated_Source\PSoC5/UART.c ****             }
 970:Generated_Source\PSoC5/UART.c **** 
 971:Generated_Source\PSoC5/UART.c ****             UART_EnableTxInt();
 894              		.loc 1 971 0
 895 0038 064B     		ldr	r3, .L81+20
 896 003a 0422     		movs	r2, #4
 897 003c 1A60     		str	r2, [r3]
 898              	.L73:
 899 003e 10BD     		pop	{r4, pc}
 900              	.L82:
 901              		.align	2
 902              	.L81:
 903 0040 00000000 		.word	.LANCHOR0
 904 0044 80E100E0 		.word	-536813184
 905 0048 6B650040 		.word	1073767787
 906 004c 4B650040 		.word	1073767755
 907 0050 00000000 		.word	UART_txBuffer
 908 0054 00E100E0 		.word	-536813312
 909              		.cfi_endproc
 910              	.LFE17:
 911              		.size	UART_WriteTxData, .-UART_WriteTxData
 912              		.section	.text.UART_ReadTxStatus,"ax",%progbits
 913              		.align	1
 914              		.global	UART_ReadTxStatus
 915              		.thumb
 916              		.thumb_func
 917              		.type	UART_ReadTxStatus, %function
 918              	UART_ReadTxStatus:
 919              	.LFB18:
 972:Generated_Source\PSoC5/UART.c **** 
 973:Generated_Source\PSoC5/UART.c ****         #else
 974:Generated_Source\PSoC5/UART.c **** 
 975:Generated_Source\PSoC5/UART.c ****             /* Add directly to the FIFO. */
 976:Generated_Source\PSoC5/UART.c ****             UART_TXDATA_REG = txDataByte;
 977:Generated_Source\PSoC5/UART.c **** 
 978:Generated_Source\PSoC5/UART.c ****         #endif /*(UART_TX_INTERRUPT_ENABLED) */
 979:Generated_Source\PSoC5/UART.c ****         }
 980:Generated_Source\PSoC5/UART.c ****     }
 981:Generated_Source\PSoC5/UART.c **** 
 982:Generated_Source\PSoC5/UART.c **** 
 983:Generated_Source\PSoC5/UART.c ****     /*******************************************************************************
 984:Generated_Source\PSoC5/UART.c ****     * Function Name: UART_ReadTxStatus
 985:Generated_Source\PSoC5/UART.c ****     ********************************************************************************
 986:Generated_Source\PSoC5/UART.c ****     *
 987:Generated_Source\PSoC5/UART.c ****     * Summary:
 988:Generated_Source\PSoC5/UART.c ****     *  Reads the status register for the TX portion of the UART.
 989:Generated_Source\PSoC5/UART.c ****     *
ARM GAS  C:\Users\valer\AppData\Local\Temp\ccsjZDIz.s 			page 35


 990:Generated_Source\PSoC5/UART.c ****     * Parameters:
 991:Generated_Source\PSoC5/UART.c ****     *  None.
 992:Generated_Source\PSoC5/UART.c ****     *
 993:Generated_Source\PSoC5/UART.c ****     * Return:
 994:Generated_Source\PSoC5/UART.c ****     *  Contents of the status register
 995:Generated_Source\PSoC5/UART.c ****     *
 996:Generated_Source\PSoC5/UART.c ****     * Theory:
 997:Generated_Source\PSoC5/UART.c ****     *  This function reads the TX status register, which is cleared on read.
 998:Generated_Source\PSoC5/UART.c ****     *  It is up to the user to handle all bits in this return value accordingly,
 999:Generated_Source\PSoC5/UART.c ****     *  even if the bit was not enabled as an interrupt source the event happened
1000:Generated_Source\PSoC5/UART.c ****     *  and must be handled accordingly.
1001:Generated_Source\PSoC5/UART.c ****     *
1002:Generated_Source\PSoC5/UART.c ****     *******************************************************************************/
1003:Generated_Source\PSoC5/UART.c ****     uint8 UART_ReadTxStatus(void) 
1004:Generated_Source\PSoC5/UART.c ****     {
 920              		.loc 1 1004 0
 921              		.cfi_startproc
 922              		@ args = 0, pretend = 0, frame = 0
 923              		@ frame_needed = 0, uses_anonymous_args = 0
 924              		@ link register save eliminated.
1005:Generated_Source\PSoC5/UART.c ****         return(UART_TXSTATUS_REG);
 925              		.loc 1 1005 0
 926 0000 014B     		ldr	r3, .L84
 927 0002 1878     		ldrb	r0, [r3]	@ zero_extendqisi2
1006:Generated_Source\PSoC5/UART.c ****     }
 928              		.loc 1 1006 0
 929 0004 7047     		bx	lr
 930              	.L85:
 931 0006 00BF     		.align	2
 932              	.L84:
 933 0008 6B650040 		.word	1073767787
 934              		.cfi_endproc
 935              	.LFE18:
 936              		.size	UART_ReadTxStatus, .-UART_ReadTxStatus
 937              		.section	.text.UART_PutChar,"ax",%progbits
 938              		.align	1
 939              		.global	UART_PutChar
 940              		.thumb
 941              		.thumb_func
 942              		.type	UART_PutChar, %function
 943              	UART_PutChar:
 944              	.LFB19:
1007:Generated_Source\PSoC5/UART.c **** 
1008:Generated_Source\PSoC5/UART.c **** 
1009:Generated_Source\PSoC5/UART.c ****     /*******************************************************************************
1010:Generated_Source\PSoC5/UART.c ****     * Function Name: UART_PutChar
1011:Generated_Source\PSoC5/UART.c ****     ********************************************************************************
1012:Generated_Source\PSoC5/UART.c ****     *
1013:Generated_Source\PSoC5/UART.c ****     * Summary:
1014:Generated_Source\PSoC5/UART.c ****     *  Puts a byte of data into the transmit buffer to be sent when the bus is
1015:Generated_Source\PSoC5/UART.c ****     *  available. This is a blocking API that waits until the TX buffer has room to
1016:Generated_Source\PSoC5/UART.c ****     *  hold the data.
1017:Generated_Source\PSoC5/UART.c ****     *
1018:Generated_Source\PSoC5/UART.c ****     * Parameters:
1019:Generated_Source\PSoC5/UART.c ****     *  txDataByte: Byte containing the data to transmit
1020:Generated_Source\PSoC5/UART.c ****     *
1021:Generated_Source\PSoC5/UART.c ****     * Return:
ARM GAS  C:\Users\valer\AppData\Local\Temp\ccsjZDIz.s 			page 36


1022:Generated_Source\PSoC5/UART.c ****     *  None.
1023:Generated_Source\PSoC5/UART.c ****     *
1024:Generated_Source\PSoC5/UART.c ****     * Global Variables:
1025:Generated_Source\PSoC5/UART.c ****     *  UART_txBuffer - RAM buffer pointer for save data for transmission
1026:Generated_Source\PSoC5/UART.c ****     *  UART_txBufferWrite - cyclic index for write to txBuffer,
1027:Generated_Source\PSoC5/UART.c ****     *     checked to identify free space in txBuffer and incremented after each byte
1028:Generated_Source\PSoC5/UART.c ****     *     saved to buffer.
1029:Generated_Source\PSoC5/UART.c ****     *  UART_txBufferRead - cyclic index for read from txBuffer,
1030:Generated_Source\PSoC5/UART.c ****     *     checked to identify free space in txBuffer.
1031:Generated_Source\PSoC5/UART.c ****     *  UART_initVar - checked to identify that the component has been
1032:Generated_Source\PSoC5/UART.c ****     *     initialized.
1033:Generated_Source\PSoC5/UART.c ****     *
1034:Generated_Source\PSoC5/UART.c ****     * Reentrant:
1035:Generated_Source\PSoC5/UART.c ****     *  No.
1036:Generated_Source\PSoC5/UART.c ****     *
1037:Generated_Source\PSoC5/UART.c ****     * Theory:
1038:Generated_Source\PSoC5/UART.c ****     *  Allows the user to transmit any byte of data in a single transfer
1039:Generated_Source\PSoC5/UART.c ****     *
1040:Generated_Source\PSoC5/UART.c ****     *******************************************************************************/
1041:Generated_Source\PSoC5/UART.c ****     void UART_PutChar(uint8 txDataByte) 
1042:Generated_Source\PSoC5/UART.c ****     {
 945              		.loc 1 1042 0
 946              		.cfi_startproc
 947              		@ args = 0, pretend = 0, frame = 0
 948              		@ frame_needed = 0, uses_anonymous_args = 0
 949              	.LVL50:
 950 0000 10B5     		push	{r4, lr}
 951              		.cfi_def_cfa_offset 8
 952              		.cfi_offset 4, -8
 953              		.cfi_offset 14, -4
1043:Generated_Source\PSoC5/UART.c ****     #if (UART_TX_INTERRUPT_ENABLED)
1044:Generated_Source\PSoC5/UART.c ****         /* The temporary output pointer is used since it takes two instructions
1045:Generated_Source\PSoC5/UART.c ****         *  to increment with a wrap, and we can't risk doing that with the real
1046:Generated_Source\PSoC5/UART.c ****         *  pointer and getting an interrupt in between instructions.
1047:Generated_Source\PSoC5/UART.c ****         */
1048:Generated_Source\PSoC5/UART.c ****         uint8 locTxBufferWrite;
1049:Generated_Source\PSoC5/UART.c ****         uint8 locTxBufferRead;
1050:Generated_Source\PSoC5/UART.c **** 
1051:Generated_Source\PSoC5/UART.c ****         do
1052:Generated_Source\PSoC5/UART.c ****         { /* Block if software buffer is full, so we don't overwrite. */
1053:Generated_Source\PSoC5/UART.c **** 
1054:Generated_Source\PSoC5/UART.c ****         #if ((UART_TX_BUFFER_SIZE > UART_MAX_BYTE_VALUE) && (CY_PSOC3))
1055:Generated_Source\PSoC5/UART.c ****             /* Disable TX interrupt to protect variables from modification */
1056:Generated_Source\PSoC5/UART.c ****             UART_DisableTxInt();
1057:Generated_Source\PSoC5/UART.c ****         #endif /* (UART_TX_BUFFER_SIZE > UART_MAX_BYTE_VALUE) && (CY_PSOC3) */
1058:Generated_Source\PSoC5/UART.c **** 
1059:Generated_Source\PSoC5/UART.c ****             locTxBufferWrite = UART_txBufferWrite;
 954              		.loc 1 1059 0
 955 0002 134C     		ldr	r4, .L98
 956 0004 E379     		ldrb	r3, [r4, #7]	@ zero_extendqisi2
 957              	.L89:
 958              	.LVL51:
1060:Generated_Source\PSoC5/UART.c ****             locTxBufferRead  = UART_txBufferRead;
 959              		.loc 1 1060 0
 960 0006 A279     		ldrb	r2, [r4, #6]	@ zero_extendqisi2
 961 0008 D2B2     		uxtb	r2, r2
 962              	.LVL52:
ARM GAS  C:\Users\valer\AppData\Local\Temp\ccsjZDIz.s 			page 37


1061:Generated_Source\PSoC5/UART.c **** 
1062:Generated_Source\PSoC5/UART.c ****         #if ((UART_TX_BUFFER_SIZE > UART_MAX_BYTE_VALUE) && (CY_PSOC3))
1063:Generated_Source\PSoC5/UART.c ****             /* Enable interrupt to continue transmission */
1064:Generated_Source\PSoC5/UART.c ****             UART_EnableTxInt();
1065:Generated_Source\PSoC5/UART.c ****         #endif /* (UART_TX_BUFFER_SIZE > UART_MAX_BYTE_VALUE) && (CY_PSOC3) */
1066:Generated_Source\PSoC5/UART.c ****         }
1067:Generated_Source\PSoC5/UART.c ****         while( (locTxBufferWrite < locTxBufferRead) ? (locTxBufferWrite == (locTxBufferRead - 1u)) 
 963              		.loc 1 1067 0
 964 000a 9342     		cmp	r3, r2
 965 000c 02D2     		bcs	.L87
 966              		.loc 1 1067 0 is_stmt 0 discriminator 1
 967 000e 511E     		subs	r1, r2, #1
 968 0010 9942     		cmp	r1, r3
 969 0012 01E0     		b	.L97
 970              	.L87:
 971              		.loc 1 1067 0 discriminator 2
 972 0014 991A     		subs	r1, r3, r2
 973 0016 0729     		cmp	r1, #7
 974              	.L97:
 975 0018 14BF     		ite	ne
 976 001a 0021     		movne	r1, #0
 977 001c 0121     		moveq	r1, #1
1068:Generated_Source\PSoC5/UART.c ****                                 ((locTxBufferWrite - locTxBufferRead) ==
1069:Generated_Source\PSoC5/UART.c ****                                 (uint8)(UART_TX_BUFFER_SIZE - 1u)) );
 978              		.loc 1 1069 0 is_stmt 1 discriminator 2
 979 001e 0029     		cmp	r1, #0
 980 0020 F1D1     		bne	.L89
1070:Generated_Source\PSoC5/UART.c **** 
1071:Generated_Source\PSoC5/UART.c ****         if( (locTxBufferRead == locTxBufferWrite) &&
 981              		.loc 1 1071 0
 982 0022 9342     		cmp	r3, r2
 983 0024 0B4A     		ldr	r2, .L98+4
 984              	.LVL53:
 985 0026 05D1     		bne	.L90
1072:Generated_Source\PSoC5/UART.c ****             ((UART_TXSTATUS_REG & UART_TX_STS_FIFO_FULL) == 0u) )
 986              		.loc 1 1072 0 discriminator 1
 987 0028 1178     		ldrb	r1, [r2]	@ zero_extendqisi2
1071:Generated_Source\PSoC5/UART.c ****             ((UART_TXSTATUS_REG & UART_TX_STS_FIFO_FULL) == 0u) )
 988              		.loc 1 1071 0 discriminator 1
 989 002a 4907     		lsls	r1, r1, #29
 990 002c 02D4     		bmi	.L90
1073:Generated_Source\PSoC5/UART.c ****         {
1074:Generated_Source\PSoC5/UART.c ****             /* Add directly to the FIFO */
1075:Generated_Source\PSoC5/UART.c ****             UART_TXDATA_REG = txDataByte;
 991              		.loc 1 1075 0
 992 002e 0A4B     		ldr	r3, .L98+8
 993 0030 1870     		strb	r0, [r3]
 994              	.LVL54:
 995 0032 10BD     		pop	{r4, pc}
 996              	.LVL55:
 997              	.L90:
1076:Generated_Source\PSoC5/UART.c ****         }
1077:Generated_Source\PSoC5/UART.c ****         else
1078:Generated_Source\PSoC5/UART.c ****         {
1079:Generated_Source\PSoC5/UART.c ****             if(locTxBufferWrite >= UART_TX_BUFFER_SIZE)
1080:Generated_Source\PSoC5/UART.c ****             {
1081:Generated_Source\PSoC5/UART.c ****                 locTxBufferWrite = 0u;
ARM GAS  C:\Users\valer\AppData\Local\Temp\ccsjZDIz.s 			page 38


 998              		.loc 1 1081 0
 999 0034 082B     		cmp	r3, #8
1082:Generated_Source\PSoC5/UART.c ****             }
1083:Generated_Source\PSoC5/UART.c ****             /* Add to the software buffer. */
1084:Generated_Source\PSoC5/UART.c ****             UART_txBuffer[locTxBufferWrite] = txDataByte;
 1000              		.loc 1 1084 0
 1001 0036 0949     		ldr	r1, .L98+12
1081:Generated_Source\PSoC5/UART.c ****             }
 1002              		.loc 1 1081 0
 1003 0038 28BF     		it	cs
 1004 003a 0023     		movcs	r3, #0
 1005              	.LVL56:
 1006              		.loc 1 1084 0
 1007 003c C854     		strb	r0, [r1, r3]
 1008              	.LVL57:
1085:Generated_Source\PSoC5/UART.c ****             locTxBufferWrite++;
1086:Generated_Source\PSoC5/UART.c **** 
1087:Generated_Source\PSoC5/UART.c ****             /* Finally, update the real output pointer */
1088:Generated_Source\PSoC5/UART.c ****         #if ((UART_TX_BUFFER_SIZE > UART_MAX_BYTE_VALUE) && (CY_PSOC3))
1089:Generated_Source\PSoC5/UART.c ****             UART_DisableTxInt();
1090:Generated_Source\PSoC5/UART.c ****         #endif /* (UART_TX_BUFFER_SIZE > UART_MAX_BYTE_VALUE) && (CY_PSOC3) */
1091:Generated_Source\PSoC5/UART.c **** 
1092:Generated_Source\PSoC5/UART.c ****             UART_txBufferWrite = locTxBufferWrite;
 1009              		.loc 1 1092 0
 1010 003e 0133     		adds	r3, r3, #1
 1011              	.LVL58:
 1012 0040 E371     		strb	r3, [r4, #7]
1093:Generated_Source\PSoC5/UART.c **** 
1094:Generated_Source\PSoC5/UART.c ****         #if ((UART_TX_BUFFER_SIZE > UART_MAX_BYTE_VALUE) && (CY_PSOC3))
1095:Generated_Source\PSoC5/UART.c ****             UART_EnableTxInt();
1096:Generated_Source\PSoC5/UART.c ****         #endif /* (UART_TX_BUFFER_SIZE > UART_MAX_BYTE_VALUE) && (CY_PSOC3) */
1097:Generated_Source\PSoC5/UART.c **** 
1098:Generated_Source\PSoC5/UART.c ****             if(0u != (UART_TXSTATUS_REG & UART_TX_STS_FIFO_EMPTY))
 1013              		.loc 1 1098 0
 1014 0042 1378     		ldrb	r3, [r2]	@ zero_extendqisi2
 1015              	.LVL59:
 1016 0044 9B07     		lsls	r3, r3, #30
 1017              	.LVL60:
1099:Generated_Source\PSoC5/UART.c ****             {
1100:Generated_Source\PSoC5/UART.c ****                 /* Trigger TX interrupt to send software buffer */
1101:Generated_Source\PSoC5/UART.c ****                 UART_SetPendingTxInt();
 1018              		.loc 1 1101 0
 1019 0046 42BF     		ittt	mi
 1020 0048 054B     		ldrmi	r3, .L98+16
 1021 004a 0422     		movmi	r2, #4
 1022 004c 1A60     		strmi	r2, [r3]
 1023 004e 10BD     		pop	{r4, pc}
 1024              	.L99:
 1025              		.align	2
 1026              	.L98:
 1027 0050 00000000 		.word	.LANCHOR0
 1028 0054 6B650040 		.word	1073767787
 1029 0058 4B650040 		.word	1073767755
 1030 005c 00000000 		.word	UART_txBuffer
 1031 0060 00E200E0 		.word	-536813056
 1032              		.cfi_endproc
 1033              	.LFE19:
ARM GAS  C:\Users\valer\AppData\Local\Temp\ccsjZDIz.s 			page 39


 1034              		.size	UART_PutChar, .-UART_PutChar
 1035              		.section	.text.UART_PutString,"ax",%progbits
 1036              		.align	1
 1037              		.global	UART_PutString
 1038              		.thumb
 1039              		.thumb_func
 1040              		.type	UART_PutString, %function
 1041              	UART_PutString:
 1042              	.LFB20:
1102:Generated_Source\PSoC5/UART.c ****             }
1103:Generated_Source\PSoC5/UART.c ****         }
1104:Generated_Source\PSoC5/UART.c **** 
1105:Generated_Source\PSoC5/UART.c ****     #else
1106:Generated_Source\PSoC5/UART.c **** 
1107:Generated_Source\PSoC5/UART.c ****         while((UART_TXSTATUS_REG & UART_TX_STS_FIFO_FULL) != 0u)
1108:Generated_Source\PSoC5/UART.c ****         {
1109:Generated_Source\PSoC5/UART.c ****             /* Wait for room in the FIFO */
1110:Generated_Source\PSoC5/UART.c ****         }
1111:Generated_Source\PSoC5/UART.c **** 
1112:Generated_Source\PSoC5/UART.c ****         /* Add directly to the FIFO */
1113:Generated_Source\PSoC5/UART.c ****         UART_TXDATA_REG = txDataByte;
1114:Generated_Source\PSoC5/UART.c **** 
1115:Generated_Source\PSoC5/UART.c ****     #endif /* UART_TX_INTERRUPT_ENABLED */
1116:Generated_Source\PSoC5/UART.c ****     }
1117:Generated_Source\PSoC5/UART.c **** 
1118:Generated_Source\PSoC5/UART.c **** 
1119:Generated_Source\PSoC5/UART.c ****     /*******************************************************************************
1120:Generated_Source\PSoC5/UART.c ****     * Function Name: UART_PutString
1121:Generated_Source\PSoC5/UART.c ****     ********************************************************************************
1122:Generated_Source\PSoC5/UART.c ****     *
1123:Generated_Source\PSoC5/UART.c ****     * Summary:
1124:Generated_Source\PSoC5/UART.c ****     *  Sends a NULL terminated string to the TX buffer for transmission.
1125:Generated_Source\PSoC5/UART.c ****     *
1126:Generated_Source\PSoC5/UART.c ****     * Parameters:
1127:Generated_Source\PSoC5/UART.c ****     *  string[]: Pointer to the null terminated string array residing in RAM or ROM
1128:Generated_Source\PSoC5/UART.c ****     *
1129:Generated_Source\PSoC5/UART.c ****     * Return:
1130:Generated_Source\PSoC5/UART.c ****     *  None.
1131:Generated_Source\PSoC5/UART.c ****     *
1132:Generated_Source\PSoC5/UART.c ****     * Global Variables:
1133:Generated_Source\PSoC5/UART.c ****     *  UART_initVar - checked to identify that the component has been
1134:Generated_Source\PSoC5/UART.c ****     *     initialized.
1135:Generated_Source\PSoC5/UART.c ****     *
1136:Generated_Source\PSoC5/UART.c ****     * Reentrant:
1137:Generated_Source\PSoC5/UART.c ****     *  No.
1138:Generated_Source\PSoC5/UART.c ****     *
1139:Generated_Source\PSoC5/UART.c ****     * Theory:
1140:Generated_Source\PSoC5/UART.c ****     *  If there is not enough memory in the TX buffer for the entire string, this
1141:Generated_Source\PSoC5/UART.c ****     *  function blocks until the last character of the string is loaded into the
1142:Generated_Source\PSoC5/UART.c ****     *  TX buffer.
1143:Generated_Source\PSoC5/UART.c ****     *
1144:Generated_Source\PSoC5/UART.c ****     *******************************************************************************/
1145:Generated_Source\PSoC5/UART.c ****     void UART_PutString(const char8 string[]) 
1146:Generated_Source\PSoC5/UART.c ****     {
 1043              		.loc 1 1146 0
 1044              		.cfi_startproc
 1045              		@ args = 0, pretend = 0, frame = 0
ARM GAS  C:\Users\valer\AppData\Local\Temp\ccsjZDIz.s 			page 40


 1046              		@ frame_needed = 0, uses_anonymous_args = 0
 1047              	.LVL61:
 1048 0000 38B5     		push	{r3, r4, r5, lr}
 1049              		.cfi_def_cfa_offset 16
 1050              		.cfi_offset 3, -16
 1051              		.cfi_offset 4, -12
 1052              		.cfi_offset 5, -8
 1053              		.cfi_offset 14, -4
1147:Generated_Source\PSoC5/UART.c ****         uint16 bufIndex = 0u;
1148:Generated_Source\PSoC5/UART.c **** 
1149:Generated_Source\PSoC5/UART.c ****         /* If not Initialized then skip this function */
1150:Generated_Source\PSoC5/UART.c ****         if(UART_initVar != 0u)
 1054              		.loc 1 1150 0
 1055 0002 064B     		ldr	r3, .L107
1146:Generated_Source\PSoC5/UART.c ****         uint16 bufIndex = 0u;
 1056              		.loc 1 1146 0
 1057 0004 0546     		mov	r5, r0
 1058              		.loc 1 1150 0
 1059 0006 5B78     		ldrb	r3, [r3, #1]	@ zero_extendqisi2
 1060 0008 3BB1     		cbz	r3, .L100
 1061 000a 0024     		movs	r4, #0
 1062              	.LVL62:
 1063              	.L102:
1151:Generated_Source\PSoC5/UART.c ****         {
1152:Generated_Source\PSoC5/UART.c ****             /* This is a blocking function, it will not exit until all data is sent */
1153:Generated_Source\PSoC5/UART.c ****             while(string[bufIndex] != (char8) 0)
 1064              		.loc 1 1153 0
 1065 000c A3B2     		uxth	r3, r4
 1066              	.LVL63:
 1067 000e E85C     		ldrb	r0, [r5, r3]	@ zero_extendqisi2
 1068 0010 0134     		adds	r4, r4, #1
 1069 0012 10B1     		cbz	r0, .L100
1154:Generated_Source\PSoC5/UART.c ****             {
1155:Generated_Source\PSoC5/UART.c ****                 UART_PutChar((uint8)string[bufIndex]);
 1070              		.loc 1 1155 0
 1071 0014 FFF7FEFF 		bl	UART_PutChar
 1072              	.LVL64:
 1073 0018 F8E7     		b	.L102
 1074              	.LVL65:
 1075              	.L100:
 1076 001a 38BD     		pop	{r3, r4, r5, pc}
 1077              	.LVL66:
 1078              	.L108:
 1079              		.align	2
 1080              	.L107:
 1081 001c 00000000 		.word	.LANCHOR0
 1082              		.cfi_endproc
 1083              	.LFE20:
 1084              		.size	UART_PutString, .-UART_PutString
 1085              		.section	.text.UART_PutArray,"ax",%progbits
 1086              		.align	1
 1087              		.global	UART_PutArray
 1088              		.thumb
 1089              		.thumb_func
 1090              		.type	UART_PutArray, %function
 1091              	UART_PutArray:
 1092              	.LFB21:
ARM GAS  C:\Users\valer\AppData\Local\Temp\ccsjZDIz.s 			page 41


1156:Generated_Source\PSoC5/UART.c ****                 bufIndex++;
1157:Generated_Source\PSoC5/UART.c ****             }
1158:Generated_Source\PSoC5/UART.c ****         }
1159:Generated_Source\PSoC5/UART.c ****     }
1160:Generated_Source\PSoC5/UART.c **** 
1161:Generated_Source\PSoC5/UART.c **** 
1162:Generated_Source\PSoC5/UART.c ****     /*******************************************************************************
1163:Generated_Source\PSoC5/UART.c ****     * Function Name: UART_PutArray
1164:Generated_Source\PSoC5/UART.c ****     ********************************************************************************
1165:Generated_Source\PSoC5/UART.c ****     *
1166:Generated_Source\PSoC5/UART.c ****     * Summary:
1167:Generated_Source\PSoC5/UART.c ****     *  Places N bytes of data from a memory array into the TX buffer for
1168:Generated_Source\PSoC5/UART.c ****     *  transmission.
1169:Generated_Source\PSoC5/UART.c ****     *
1170:Generated_Source\PSoC5/UART.c ****     * Parameters:
1171:Generated_Source\PSoC5/UART.c ****     *  string[]: Address of the memory array residing in RAM or ROM.
1172:Generated_Source\PSoC5/UART.c ****     *  byteCount: Number of bytes to be transmitted. The type depends on TX Buffer
1173:Generated_Source\PSoC5/UART.c ****     *             Size parameter.
1174:Generated_Source\PSoC5/UART.c ****     *
1175:Generated_Source\PSoC5/UART.c ****     * Return:
1176:Generated_Source\PSoC5/UART.c ****     *  None.
1177:Generated_Source\PSoC5/UART.c ****     *
1178:Generated_Source\PSoC5/UART.c ****     * Global Variables:
1179:Generated_Source\PSoC5/UART.c ****     *  UART_initVar - checked to identify that the component has been
1180:Generated_Source\PSoC5/UART.c ****     *     initialized.
1181:Generated_Source\PSoC5/UART.c ****     *
1182:Generated_Source\PSoC5/UART.c ****     * Reentrant:
1183:Generated_Source\PSoC5/UART.c ****     *  No.
1184:Generated_Source\PSoC5/UART.c ****     *
1185:Generated_Source\PSoC5/UART.c ****     * Theory:
1186:Generated_Source\PSoC5/UART.c ****     *  If there is not enough memory in the TX buffer for the entire string, this
1187:Generated_Source\PSoC5/UART.c ****     *  function blocks until the last character of the string is loaded into the
1188:Generated_Source\PSoC5/UART.c ****     *  TX buffer.
1189:Generated_Source\PSoC5/UART.c ****     *
1190:Generated_Source\PSoC5/UART.c ****     *******************************************************************************/
1191:Generated_Source\PSoC5/UART.c ****     void UART_PutArray(const uint8 string[], uint8 byteCount)
1192:Generated_Source\PSoC5/UART.c ****                                                                     
1193:Generated_Source\PSoC5/UART.c ****     {
 1093              		.loc 1 1193 0
 1094              		.cfi_startproc
 1095              		@ args = 0, pretend = 0, frame = 0
 1096              		@ frame_needed = 0, uses_anonymous_args = 0
 1097              	.LVL67:
 1098 0000 38B5     		push	{r3, r4, r5, lr}
 1099              		.cfi_def_cfa_offset 16
 1100              		.cfi_offset 3, -16
 1101              		.cfi_offset 4, -12
 1102              		.cfi_offset 5, -8
 1103              		.cfi_offset 14, -4
1194:Generated_Source\PSoC5/UART.c ****         uint8 bufIndex = 0u;
1195:Generated_Source\PSoC5/UART.c **** 
1196:Generated_Source\PSoC5/UART.c ****         /* If not Initialized then skip this function */
1197:Generated_Source\PSoC5/UART.c ****         if(UART_initVar != 0u)
 1104              		.loc 1 1197 0
 1105 0002 074B     		ldr	r3, .L114
 1106 0004 5B78     		ldrb	r3, [r3, #1]	@ zero_extendqisi2
 1107 0006 4BB1     		cbz	r3, .L109
ARM GAS  C:\Users\valer\AppData\Local\Temp\ccsjZDIz.s 			page 42


 1108 0008 0139     		subs	r1, r1, #1
 1109              	.LVL68:
 1110 000a 451E     		subs	r5, r0, #1
 1111 000c 4418     		adds	r4, r0, r1
 1112              	.LVL69:
 1113              	.L111:
1198:Generated_Source\PSoC5/UART.c ****         {
1199:Generated_Source\PSoC5/UART.c ****             while(bufIndex < byteCount)
 1114              		.loc 1 1199 0
 1115 000e A542     		cmp	r5, r4
 1116 0010 04D0     		beq	.L109
1200:Generated_Source\PSoC5/UART.c ****             {
1201:Generated_Source\PSoC5/UART.c ****                 UART_PutChar(string[bufIndex]);
 1117              		.loc 1 1201 0
 1118 0012 15F8010F 		ldrb	r0, [r5, #1]!	@ zero_extendqisi2
 1119              	.LVL70:
 1120 0016 FFF7FEFF 		bl	UART_PutChar
 1121              	.LVL71:
 1122 001a F8E7     		b	.L111
 1123              	.LVL72:
 1124              	.L109:
 1125 001c 38BD     		pop	{r3, r4, r5, pc}
 1126              	.L115:
 1127 001e 00BF     		.align	2
 1128              	.L114:
 1129 0020 00000000 		.word	.LANCHOR0
 1130              		.cfi_endproc
 1131              	.LFE21:
 1132              		.size	UART_PutArray, .-UART_PutArray
 1133              		.section	.text.UART_PutCRLF,"ax",%progbits
 1134              		.align	1
 1135              		.global	UART_PutCRLF
 1136              		.thumb
 1137              		.thumb_func
 1138              		.type	UART_PutCRLF, %function
 1139              	UART_PutCRLF:
 1140              	.LFB22:
1202:Generated_Source\PSoC5/UART.c ****                 bufIndex++;
1203:Generated_Source\PSoC5/UART.c ****             }
1204:Generated_Source\PSoC5/UART.c ****         }
1205:Generated_Source\PSoC5/UART.c ****     }
1206:Generated_Source\PSoC5/UART.c **** 
1207:Generated_Source\PSoC5/UART.c **** 
1208:Generated_Source\PSoC5/UART.c ****     /*******************************************************************************
1209:Generated_Source\PSoC5/UART.c ****     * Function Name: UART_PutCRLF
1210:Generated_Source\PSoC5/UART.c ****     ********************************************************************************
1211:Generated_Source\PSoC5/UART.c ****     *
1212:Generated_Source\PSoC5/UART.c ****     * Summary:
1213:Generated_Source\PSoC5/UART.c ****     *  Writes a byte of data followed by a carriage return (0x0D) and line feed
1214:Generated_Source\PSoC5/UART.c ****     *  (0x0A) to the transmit buffer.
1215:Generated_Source\PSoC5/UART.c ****     *
1216:Generated_Source\PSoC5/UART.c ****     * Parameters:
1217:Generated_Source\PSoC5/UART.c ****     *  txDataByte: Data byte to transmit before the carriage return and line feed.
1218:Generated_Source\PSoC5/UART.c ****     *
1219:Generated_Source\PSoC5/UART.c ****     * Return:
1220:Generated_Source\PSoC5/UART.c ****     *  None.
1221:Generated_Source\PSoC5/UART.c ****     *
ARM GAS  C:\Users\valer\AppData\Local\Temp\ccsjZDIz.s 			page 43


1222:Generated_Source\PSoC5/UART.c ****     * Global Variables:
1223:Generated_Source\PSoC5/UART.c ****     *  UART_initVar - checked to identify that the component has been
1224:Generated_Source\PSoC5/UART.c ****     *     initialized.
1225:Generated_Source\PSoC5/UART.c ****     *
1226:Generated_Source\PSoC5/UART.c ****     * Reentrant:
1227:Generated_Source\PSoC5/UART.c ****     *  No.
1228:Generated_Source\PSoC5/UART.c ****     *
1229:Generated_Source\PSoC5/UART.c ****     *******************************************************************************/
1230:Generated_Source\PSoC5/UART.c ****     void UART_PutCRLF(uint8 txDataByte) 
1231:Generated_Source\PSoC5/UART.c ****     {
 1141              		.loc 1 1231 0
 1142              		.cfi_startproc
 1143              		@ args = 0, pretend = 0, frame = 0
 1144              		@ frame_needed = 0, uses_anonymous_args = 0
 1145              	.LVL73:
 1146 0000 08B5     		push	{r3, lr}
 1147              		.cfi_def_cfa_offset 8
 1148              		.cfi_offset 3, -8
 1149              		.cfi_offset 14, -4
1232:Generated_Source\PSoC5/UART.c ****         /* If not Initialized then skip this function */
1233:Generated_Source\PSoC5/UART.c ****         if(UART_initVar != 0u)
 1150              		.loc 1 1233 0
 1151 0002 074B     		ldr	r3, .L118
 1152 0004 5B78     		ldrb	r3, [r3, #1]	@ zero_extendqisi2
 1153 0006 4BB1     		cbz	r3, .L116
1234:Generated_Source\PSoC5/UART.c ****         {
1235:Generated_Source\PSoC5/UART.c ****             UART_PutChar(txDataByte);
 1154              		.loc 1 1235 0
 1155 0008 FFF7FEFF 		bl	UART_PutChar
 1156              	.LVL74:
1236:Generated_Source\PSoC5/UART.c ****             UART_PutChar(0x0Du);
 1157              		.loc 1 1236 0
 1158 000c 0D20     		movs	r0, #13
 1159 000e FFF7FEFF 		bl	UART_PutChar
 1160              	.LVL75:
1237:Generated_Source\PSoC5/UART.c ****             UART_PutChar(0x0Au);
1238:Generated_Source\PSoC5/UART.c ****         }
1239:Generated_Source\PSoC5/UART.c ****     }
 1161              		.loc 1 1239 0
 1162 0012 BDE80840 		pop	{r3, lr}
 1163              		.cfi_remember_state
 1164              		.cfi_restore 14
 1165              		.cfi_restore 3
 1166              		.cfi_def_cfa_offset 0
1237:Generated_Source\PSoC5/UART.c ****             UART_PutChar(0x0Au);
 1167              		.loc 1 1237 0
 1168 0016 0A20     		movs	r0, #10
 1169 0018 FFF7FEBF 		b	UART_PutChar
 1170              	.LVL76:
 1171              	.L116:
 1172              		.cfi_restore_state
 1173 001c 08BD     		pop	{r3, pc}
 1174              	.L119:
 1175 001e 00BF     		.align	2
 1176              	.L118:
 1177 0020 00000000 		.word	.LANCHOR0
 1178              		.cfi_endproc
ARM GAS  C:\Users\valer\AppData\Local\Temp\ccsjZDIz.s 			page 44


 1179              	.LFE22:
 1180              		.size	UART_PutCRLF, .-UART_PutCRLF
 1181              		.section	.text.UART_GetTxBufferSize,"ax",%progbits
 1182              		.align	1
 1183              		.global	UART_GetTxBufferSize
 1184              		.thumb
 1185              		.thumb_func
 1186              		.type	UART_GetTxBufferSize, %function
 1187              	UART_GetTxBufferSize:
 1188              	.LFB23:
1240:Generated_Source\PSoC5/UART.c **** 
1241:Generated_Source\PSoC5/UART.c **** 
1242:Generated_Source\PSoC5/UART.c ****     /*******************************************************************************
1243:Generated_Source\PSoC5/UART.c ****     * Function Name: UART_GetTxBufferSize
1244:Generated_Source\PSoC5/UART.c ****     ********************************************************************************
1245:Generated_Source\PSoC5/UART.c ****     *
1246:Generated_Source\PSoC5/UART.c ****     * Summary:
1247:Generated_Source\PSoC5/UART.c ****     *  Returns the number of bytes in the TX buffer which are waiting to be 
1248:Generated_Source\PSoC5/UART.c ****     *  transmitted.
1249:Generated_Source\PSoC5/UART.c ****     *  * TX software buffer is disabled (TX Buffer Size parameter is equal to 4): 
1250:Generated_Source\PSoC5/UART.c ****     *    returns 0 for empty TX FIFO, 1 for not full TX FIFO or 4 for full TX FIFO.
1251:Generated_Source\PSoC5/UART.c ****     *  * TX software buffer is enabled: returns the number of bytes in the TX 
1252:Generated_Source\PSoC5/UART.c ****     *    software buffer which are waiting to be transmitted. Bytes available in the
1253:Generated_Source\PSoC5/UART.c ****     *    TX FIFO do not count.
1254:Generated_Source\PSoC5/UART.c ****     *
1255:Generated_Source\PSoC5/UART.c ****     * Parameters:
1256:Generated_Source\PSoC5/UART.c ****     *  None.
1257:Generated_Source\PSoC5/UART.c ****     *
1258:Generated_Source\PSoC5/UART.c ****     * Return:
1259:Generated_Source\PSoC5/UART.c ****     *  Number of bytes used in the TX buffer. Return value type depends on the TX 
1260:Generated_Source\PSoC5/UART.c ****     *  Buffer Size parameter.
1261:Generated_Source\PSoC5/UART.c ****     *
1262:Generated_Source\PSoC5/UART.c ****     * Global Variables:
1263:Generated_Source\PSoC5/UART.c ****     *  UART_txBufferWrite - used to calculate left space.
1264:Generated_Source\PSoC5/UART.c ****     *  UART_txBufferRead - used to calculate left space.
1265:Generated_Source\PSoC5/UART.c ****     *
1266:Generated_Source\PSoC5/UART.c ****     * Reentrant:
1267:Generated_Source\PSoC5/UART.c ****     *  No.
1268:Generated_Source\PSoC5/UART.c ****     *
1269:Generated_Source\PSoC5/UART.c ****     * Theory:
1270:Generated_Source\PSoC5/UART.c ****     *  Allows the user to find out how full the TX Buffer is.
1271:Generated_Source\PSoC5/UART.c ****     *
1272:Generated_Source\PSoC5/UART.c ****     *******************************************************************************/
1273:Generated_Source\PSoC5/UART.c ****     uint8 UART_GetTxBufferSize(void)
1274:Generated_Source\PSoC5/UART.c ****                                                             
1275:Generated_Source\PSoC5/UART.c ****     {
 1189              		.loc 1 1275 0
 1190              		.cfi_startproc
 1191              		@ args = 0, pretend = 0, frame = 0
 1192              		@ frame_needed = 0, uses_anonymous_args = 0
 1193              		@ link register save eliminated.
1276:Generated_Source\PSoC5/UART.c ****         uint8 size;
1277:Generated_Source\PSoC5/UART.c **** 
1278:Generated_Source\PSoC5/UART.c ****     #if (UART_TX_INTERRUPT_ENABLED)
1279:Generated_Source\PSoC5/UART.c **** 
1280:Generated_Source\PSoC5/UART.c ****         /* Protect variables that could change on interrupt. */
1281:Generated_Source\PSoC5/UART.c ****         UART_DisableTxInt();
ARM GAS  C:\Users\valer\AppData\Local\Temp\ccsjZDIz.s 			page 45


 1194              		.loc 1 1281 0
 1195 0000 0A4B     		ldr	r3, .L125
 1196 0002 0422     		movs	r2, #4
 1197 0004 1A60     		str	r2, [r3]
1282:Generated_Source\PSoC5/UART.c **** 
1283:Generated_Source\PSoC5/UART.c ****         if(UART_txBufferRead == UART_txBufferWrite)
 1198              		.loc 1 1283 0
 1199 0006 0A4A     		ldr	r2, .L125+4
 1200 0008 9179     		ldrb	r1, [r2, #6]	@ zero_extendqisi2
 1201 000a D379     		ldrb	r3, [r2, #7]	@ zero_extendqisi2
 1202 000c 9942     		cmp	r1, r3
 1203 000e 07D0     		beq	.L123
1284:Generated_Source\PSoC5/UART.c ****         {
1285:Generated_Source\PSoC5/UART.c ****             size = 0u;
1286:Generated_Source\PSoC5/UART.c ****         }
1287:Generated_Source\PSoC5/UART.c ****         else if(UART_txBufferRead < UART_txBufferWrite)
 1204              		.loc 1 1287 0
 1205 0010 9179     		ldrb	r1, [r2, #6]	@ zero_extendqisi2
1288:Generated_Source\PSoC5/UART.c ****         {
1289:Generated_Source\PSoC5/UART.c ****             size = (UART_txBufferWrite - UART_txBufferRead);
 1206              		.loc 1 1289 0
 1207 0012 9079     		ldrb	r0, [r2, #6]	@ zero_extendqisi2
1287:Generated_Source\PSoC5/UART.c ****         {
 1208              		.loc 1 1287 0
 1209 0014 8B42     		cmp	r3, r1
1290:Generated_Source\PSoC5/UART.c ****         }
1291:Generated_Source\PSoC5/UART.c ****         else
1292:Generated_Source\PSoC5/UART.c ****         {
1293:Generated_Source\PSoC5/UART.c ****             size = (UART_TX_BUFFER_SIZE - UART_txBufferRead) +
 1210              		.loc 1 1293 0
 1211 0016 98BF     		it	ls
 1212 0018 0833     		addls	r3, r3, #8
 1213 001a 181A     		subs	r0, r3, r0
 1214 001c C0B2     		uxtb	r0, r0
 1215              	.LVL77:
 1216 001e 00E0     		b	.L121
 1217              	.LVL78:
 1218              	.L123:
1285:Generated_Source\PSoC5/UART.c ****         }
 1219              		.loc 1 1285 0
 1220 0020 0020     		movs	r0, #0
 1221              	.L121:
 1222              	.LVL79:
1294:Generated_Source\PSoC5/UART.c ****                     UART_txBufferWrite;
1295:Generated_Source\PSoC5/UART.c ****         }
1296:Generated_Source\PSoC5/UART.c **** 
1297:Generated_Source\PSoC5/UART.c ****         UART_EnableTxInt();
 1223              		.loc 1 1297 0
 1224 0022 044B     		ldr	r3, .L125+8
 1225 0024 0422     		movs	r2, #4
 1226 0026 1A60     		str	r2, [r3]
1298:Generated_Source\PSoC5/UART.c **** 
1299:Generated_Source\PSoC5/UART.c ****     #else
1300:Generated_Source\PSoC5/UART.c **** 
1301:Generated_Source\PSoC5/UART.c ****         size = UART_TXSTATUS_REG;
1302:Generated_Source\PSoC5/UART.c **** 
1303:Generated_Source\PSoC5/UART.c ****         /* Is the fifo is full. */
ARM GAS  C:\Users\valer\AppData\Local\Temp\ccsjZDIz.s 			page 46


1304:Generated_Source\PSoC5/UART.c ****         if((size & UART_TX_STS_FIFO_FULL) != 0u)
1305:Generated_Source\PSoC5/UART.c ****         {
1306:Generated_Source\PSoC5/UART.c ****             size = UART_FIFO_LENGTH;
1307:Generated_Source\PSoC5/UART.c ****         }
1308:Generated_Source\PSoC5/UART.c ****         else if((size & UART_TX_STS_FIFO_EMPTY) != 0u)
1309:Generated_Source\PSoC5/UART.c ****         {
1310:Generated_Source\PSoC5/UART.c ****             size = 0u;
1311:Generated_Source\PSoC5/UART.c ****         }
1312:Generated_Source\PSoC5/UART.c ****         else
1313:Generated_Source\PSoC5/UART.c ****         {
1314:Generated_Source\PSoC5/UART.c ****             /* We only know there is data in the fifo. */
1315:Generated_Source\PSoC5/UART.c ****             size = 1u;
1316:Generated_Source\PSoC5/UART.c ****         }
1317:Generated_Source\PSoC5/UART.c **** 
1318:Generated_Source\PSoC5/UART.c ****     #endif /* (UART_TX_INTERRUPT_ENABLED) */
1319:Generated_Source\PSoC5/UART.c **** 
1320:Generated_Source\PSoC5/UART.c ****     return(size);
1321:Generated_Source\PSoC5/UART.c ****     }
 1227              		.loc 1 1321 0
 1228 0028 7047     		bx	lr
 1229              	.L126:
 1230 002a 00BF     		.align	2
 1231              	.L125:
 1232 002c 80E100E0 		.word	-536813184
 1233 0030 00000000 		.word	.LANCHOR0
 1234 0034 00E100E0 		.word	-536813312
 1235              		.cfi_endproc
 1236              	.LFE23:
 1237              		.size	UART_GetTxBufferSize, .-UART_GetTxBufferSize
 1238              		.section	.text.UART_ClearTxBuffer,"ax",%progbits
 1239              		.align	1
 1240              		.global	UART_ClearTxBuffer
 1241              		.thumb
 1242              		.thumb_func
 1243              		.type	UART_ClearTxBuffer, %function
 1244              	UART_ClearTxBuffer:
 1245              	.LFB24:
1322:Generated_Source\PSoC5/UART.c **** 
1323:Generated_Source\PSoC5/UART.c **** 
1324:Generated_Source\PSoC5/UART.c ****     /*******************************************************************************
1325:Generated_Source\PSoC5/UART.c ****     * Function Name: UART_ClearTxBuffer
1326:Generated_Source\PSoC5/UART.c ****     ********************************************************************************
1327:Generated_Source\PSoC5/UART.c ****     *
1328:Generated_Source\PSoC5/UART.c ****     * Summary:
1329:Generated_Source\PSoC5/UART.c ****     *  Clears all data from the TX buffer and hardware TX FIFO.
1330:Generated_Source\PSoC5/UART.c ****     *
1331:Generated_Source\PSoC5/UART.c ****     * Parameters:
1332:Generated_Source\PSoC5/UART.c ****     *  None.
1333:Generated_Source\PSoC5/UART.c ****     *
1334:Generated_Source\PSoC5/UART.c ****     * Return:
1335:Generated_Source\PSoC5/UART.c ****     *  None.
1336:Generated_Source\PSoC5/UART.c ****     *
1337:Generated_Source\PSoC5/UART.c ****     * Global Variables:
1338:Generated_Source\PSoC5/UART.c ****     *  UART_txBufferWrite - cleared to zero.
1339:Generated_Source\PSoC5/UART.c ****     *  UART_txBufferRead - cleared to zero.
1340:Generated_Source\PSoC5/UART.c ****     *
1341:Generated_Source\PSoC5/UART.c ****     * Reentrant:
ARM GAS  C:\Users\valer\AppData\Local\Temp\ccsjZDIz.s 			page 47


1342:Generated_Source\PSoC5/UART.c ****     *  No.
1343:Generated_Source\PSoC5/UART.c ****     *
1344:Generated_Source\PSoC5/UART.c ****     * Theory:
1345:Generated_Source\PSoC5/UART.c ****     *  Setting the pointers to zero makes the system believe there is no data to
1346:Generated_Source\PSoC5/UART.c ****     *  read and writing will resume at address 0 overwriting any data that may have
1347:Generated_Source\PSoC5/UART.c ****     *  remained in the RAM.
1348:Generated_Source\PSoC5/UART.c ****     *
1349:Generated_Source\PSoC5/UART.c ****     * Side Effects:
1350:Generated_Source\PSoC5/UART.c ****     *  Data waiting in the transmit buffer is not sent; a byte that is currently
1351:Generated_Source\PSoC5/UART.c ****     *  transmitting finishes transmitting.
1352:Generated_Source\PSoC5/UART.c ****     *
1353:Generated_Source\PSoC5/UART.c ****     *******************************************************************************/
1354:Generated_Source\PSoC5/UART.c ****     void UART_ClearTxBuffer(void) 
1355:Generated_Source\PSoC5/UART.c ****     {
 1246              		.loc 1 1355 0
 1247              		.cfi_startproc
 1248              		@ args = 0, pretend = 0, frame = 0
 1249              		@ frame_needed = 0, uses_anonymous_args = 0
 1250 0000 08B5     		push	{r3, lr}
 1251              		.cfi_def_cfa_offset 8
 1252              		.cfi_offset 3, -8
 1253              		.cfi_offset 14, -4
1356:Generated_Source\PSoC5/UART.c ****         uint8 enableInterrupts;
1357:Generated_Source\PSoC5/UART.c **** 
1358:Generated_Source\PSoC5/UART.c ****         enableInterrupts = CyEnterCriticalSection();
 1254              		.loc 1 1358 0
 1255 0002 FFF7FEFF 		bl	CyEnterCriticalSection
 1256              	.LVL80:
1359:Generated_Source\PSoC5/UART.c ****         /* Clear the HW FIFO */
1360:Generated_Source\PSoC5/UART.c ****         UART_TXDATA_AUX_CTL_REG |= (uint8)  UART_TX_FIFO_CLR;
 1257              		.loc 1 1360 0
 1258 0006 0A4B     		ldr	r3, .L128
 1259 0008 1A78     		ldrb	r2, [r3]	@ zero_extendqisi2
 1260 000a 42F00102 		orr	r2, r2, #1
 1261 000e 1A70     		strb	r2, [r3]
1361:Generated_Source\PSoC5/UART.c ****         UART_TXDATA_AUX_CTL_REG &= (uint8) ~UART_TX_FIFO_CLR;
 1262              		.loc 1 1361 0
 1263 0010 1A78     		ldrb	r2, [r3]	@ zero_extendqisi2
 1264 0012 02F0FE02 		and	r2, r2, #254
 1265 0016 1A70     		strb	r2, [r3]
1362:Generated_Source\PSoC5/UART.c ****         CyExitCriticalSection(enableInterrupts);
 1266              		.loc 1 1362 0
 1267 0018 FFF7FEFF 		bl	CyExitCriticalSection
 1268              	.LVL81:
1363:Generated_Source\PSoC5/UART.c **** 
1364:Generated_Source\PSoC5/UART.c ****     #if (UART_TX_INTERRUPT_ENABLED)
1365:Generated_Source\PSoC5/UART.c **** 
1366:Generated_Source\PSoC5/UART.c ****         /* Protect variables that could change on interrupt. */
1367:Generated_Source\PSoC5/UART.c ****         UART_DisableTxInt();
 1269              		.loc 1 1367 0
 1270 001c 054A     		ldr	r2, .L128+4
 1271 001e 0423     		movs	r3, #4
 1272 0020 1360     		str	r3, [r2]
1368:Generated_Source\PSoC5/UART.c **** 
1369:Generated_Source\PSoC5/UART.c ****         UART_txBufferRead = 0u;
 1273              		.loc 1 1369 0
 1274 0022 054A     		ldr	r2, .L128+8
ARM GAS  C:\Users\valer\AppData\Local\Temp\ccsjZDIz.s 			page 48


 1275 0024 0021     		movs	r1, #0
 1276 0026 9171     		strb	r1, [r2, #6]
1370:Generated_Source\PSoC5/UART.c ****         UART_txBufferWrite = 0u;
 1277              		.loc 1 1370 0
 1278 0028 D171     		strb	r1, [r2, #7]
1371:Generated_Source\PSoC5/UART.c **** 
1372:Generated_Source\PSoC5/UART.c ****         /* Enable Tx interrupt. */
1373:Generated_Source\PSoC5/UART.c ****         UART_EnableTxInt();
 1279              		.loc 1 1373 0
 1280 002a 044A     		ldr	r2, .L128+12
 1281 002c 1360     		str	r3, [r2]
 1282 002e 08BD     		pop	{r3, pc}
 1283              	.L129:
 1284              		.align	2
 1285              	.L128:
 1286 0030 9B650040 		.word	1073767835
 1287 0034 80E100E0 		.word	-536813184
 1288 0038 00000000 		.word	.LANCHOR0
 1289 003c 00E100E0 		.word	-536813312
 1290              		.cfi_endproc
 1291              	.LFE24:
 1292              		.size	UART_ClearTxBuffer, .-UART_ClearTxBuffer
 1293              		.section	.text.UART_SendBreak,"ax",%progbits
 1294              		.align	1
 1295              		.global	UART_SendBreak
 1296              		.thumb
 1297              		.thumb_func
 1298              		.type	UART_SendBreak, %function
 1299              	UART_SendBreak:
 1300              	.LFB25:
1374:Generated_Source\PSoC5/UART.c **** 
1375:Generated_Source\PSoC5/UART.c ****     #endif /* (UART_TX_INTERRUPT_ENABLED) */
1376:Generated_Source\PSoC5/UART.c ****     }
1377:Generated_Source\PSoC5/UART.c **** 
1378:Generated_Source\PSoC5/UART.c **** 
1379:Generated_Source\PSoC5/UART.c ****     /*******************************************************************************
1380:Generated_Source\PSoC5/UART.c ****     * Function Name: UART_SendBreak
1381:Generated_Source\PSoC5/UART.c ****     ********************************************************************************
1382:Generated_Source\PSoC5/UART.c ****     *
1383:Generated_Source\PSoC5/UART.c ****     * Summary:
1384:Generated_Source\PSoC5/UART.c ****     *  Transmits a break signal on the bus.
1385:Generated_Source\PSoC5/UART.c ****     *
1386:Generated_Source\PSoC5/UART.c ****     * Parameters:
1387:Generated_Source\PSoC5/UART.c ****     *  uint8 retMode:  Send Break return mode. See the following table for options.
1388:Generated_Source\PSoC5/UART.c ****     *   UART_SEND_BREAK - Initialize registers for break, send the Break
1389:Generated_Source\PSoC5/UART.c ****     *       signal and return immediately.
1390:Generated_Source\PSoC5/UART.c ****     *   UART_WAIT_FOR_COMPLETE_REINIT - Wait until break transmission is
1391:Generated_Source\PSoC5/UART.c ****     *       complete, reinitialize registers to normal transmission mode then return
1392:Generated_Source\PSoC5/UART.c ****     *   UART_REINIT - Reinitialize registers to normal transmission mode
1393:Generated_Source\PSoC5/UART.c ****     *       then return.
1394:Generated_Source\PSoC5/UART.c ****     *   UART_SEND_WAIT_REINIT - Performs both options: 
1395:Generated_Source\PSoC5/UART.c ****     *      UART_SEND_BREAK and UART_WAIT_FOR_COMPLETE_REINIT.
1396:Generated_Source\PSoC5/UART.c ****     *      This option is recommended for most cases.
1397:Generated_Source\PSoC5/UART.c ****     *
1398:Generated_Source\PSoC5/UART.c ****     * Return:
1399:Generated_Source\PSoC5/UART.c ****     *  None.
1400:Generated_Source\PSoC5/UART.c ****     *
ARM GAS  C:\Users\valer\AppData\Local\Temp\ccsjZDIz.s 			page 49


1401:Generated_Source\PSoC5/UART.c ****     * Global Variables:
1402:Generated_Source\PSoC5/UART.c ****     *  UART_initVar - checked to identify that the component has been
1403:Generated_Source\PSoC5/UART.c ****     *     initialized.
1404:Generated_Source\PSoC5/UART.c ****     *  txPeriod - static variable, used for keeping TX period configuration.
1405:Generated_Source\PSoC5/UART.c ****     *
1406:Generated_Source\PSoC5/UART.c ****     * Reentrant:
1407:Generated_Source\PSoC5/UART.c ****     *  No.
1408:Generated_Source\PSoC5/UART.c ****     *
1409:Generated_Source\PSoC5/UART.c ****     * Theory:
1410:Generated_Source\PSoC5/UART.c ****     *  SendBreak function initializes registers to send 13-bit break signal. It is
1411:Generated_Source\PSoC5/UART.c ****     *  important to return the registers configuration to normal for continue 8-bit
1412:Generated_Source\PSoC5/UART.c ****     *  operation.
1413:Generated_Source\PSoC5/UART.c ****     *  There are 3 variants for this API usage:
1414:Generated_Source\PSoC5/UART.c ****     *  1) SendBreak(3) - function will send the Break signal and take care on the
1415:Generated_Source\PSoC5/UART.c ****     *     configuration returning. Function will block CPU until transmission
1416:Generated_Source\PSoC5/UART.c ****     *     complete.
1417:Generated_Source\PSoC5/UART.c ****     *  2) User may want to use blocking time if UART configured to the low speed
1418:Generated_Source\PSoC5/UART.c ****     *     operation
1419:Generated_Source\PSoC5/UART.c ****     *     Example for this case:
1420:Generated_Source\PSoC5/UART.c ****     *     SendBreak(0);     - initialize Break signal transmission
1421:Generated_Source\PSoC5/UART.c ****     *         Add your code here to use CPU time
1422:Generated_Source\PSoC5/UART.c ****     *     SendBreak(1);     - complete Break operation
1423:Generated_Source\PSoC5/UART.c ****     *  3) Same to 2) but user may want to initialize and use the interrupt to
1424:Generated_Source\PSoC5/UART.c ****     *     complete break operation.
1425:Generated_Source\PSoC5/UART.c ****     *     Example for this case:
1426:Generated_Source\PSoC5/UART.c ****     *     Initialize TX interrupt with "TX - On TX Complete" parameter
1427:Generated_Source\PSoC5/UART.c ****     *     SendBreak(0);     - initialize Break signal transmission
1428:Generated_Source\PSoC5/UART.c ****     *         Add your code here to use CPU time
1429:Generated_Source\PSoC5/UART.c ****     *     When interrupt appear with UART_TX_STS_COMPLETE status:
1430:Generated_Source\PSoC5/UART.c ****     *     SendBreak(2);     - complete Break operation
1431:Generated_Source\PSoC5/UART.c ****     *
1432:Generated_Source\PSoC5/UART.c ****     * Side Effects:
1433:Generated_Source\PSoC5/UART.c ****     *  The UART_SendBreak() function initializes registers to send a
1434:Generated_Source\PSoC5/UART.c ****     *  break signal.
1435:Generated_Source\PSoC5/UART.c ****     *  Break signal length depends on the break signal bits configuration.
1436:Generated_Source\PSoC5/UART.c ****     *  The register configuration should be reinitialized before normal 8-bit
1437:Generated_Source\PSoC5/UART.c ****     *  communication can continue.
1438:Generated_Source\PSoC5/UART.c ****     *
1439:Generated_Source\PSoC5/UART.c ****     *******************************************************************************/
1440:Generated_Source\PSoC5/UART.c ****     void UART_SendBreak(uint8 retMode) 
1441:Generated_Source\PSoC5/UART.c ****     {
 1301              		.loc 1 1441 0
 1302              		.cfi_startproc
 1303              		@ args = 0, pretend = 0, frame = 0
 1304              		@ frame_needed = 0, uses_anonymous_args = 0
 1305              		@ link register save eliminated.
 1306              	.LVL82:
1442:Generated_Source\PSoC5/UART.c **** 
1443:Generated_Source\PSoC5/UART.c ****         /* If not Initialized then skip this function*/
1444:Generated_Source\PSoC5/UART.c ****         if(UART_initVar != 0u)
 1307              		.loc 1 1444 0
 1308 0000 124B     		ldr	r3, .L153
 1309 0002 5A78     		ldrb	r2, [r3, #1]	@ zero_extendqisi2
 1310 0004 02B3     		cbz	r2, .L130
 1311              	.LBB2:
1445:Generated_Source\PSoC5/UART.c ****         {
1446:Generated_Source\PSoC5/UART.c ****             /* Set the Counter to 13-bits and transmit a 00 byte */
ARM GAS  C:\Users\valer\AppData\Local\Temp\ccsjZDIz.s 			page 50


1447:Generated_Source\PSoC5/UART.c ****             /* When that is done then reset the counter value back */
1448:Generated_Source\PSoC5/UART.c ****             uint8 tmpStat;
1449:Generated_Source\PSoC5/UART.c **** 
1450:Generated_Source\PSoC5/UART.c ****         #if(UART_HD_ENABLED) /* Half Duplex mode*/
1451:Generated_Source\PSoC5/UART.c **** 
1452:Generated_Source\PSoC5/UART.c ****             if( (retMode == UART_SEND_BREAK) ||
1453:Generated_Source\PSoC5/UART.c ****                 (retMode == UART_SEND_WAIT_REINIT ) )
1454:Generated_Source\PSoC5/UART.c ****             {
1455:Generated_Source\PSoC5/UART.c ****                 /* CTRL_HD_SEND_BREAK - sends break bits in HD mode */
1456:Generated_Source\PSoC5/UART.c ****                 UART_WriteControlRegister(UART_ReadControlRegister() |
1457:Generated_Source\PSoC5/UART.c ****                                                       UART_CTRL_HD_SEND_BREAK);
1458:Generated_Source\PSoC5/UART.c ****                 /* Send zeros */
1459:Generated_Source\PSoC5/UART.c ****                 UART_TXDATA_REG = 0u;
1460:Generated_Source\PSoC5/UART.c **** 
1461:Generated_Source\PSoC5/UART.c ****                 do /* Wait until transmit starts */
1462:Generated_Source\PSoC5/UART.c ****                 {
1463:Generated_Source\PSoC5/UART.c ****                     tmpStat = UART_TXSTATUS_REG;
1464:Generated_Source\PSoC5/UART.c ****                 }
1465:Generated_Source\PSoC5/UART.c ****                 while((tmpStat & UART_TX_STS_FIFO_EMPTY) != 0u);
1466:Generated_Source\PSoC5/UART.c ****             }
1467:Generated_Source\PSoC5/UART.c **** 
1468:Generated_Source\PSoC5/UART.c ****             if( (retMode == UART_WAIT_FOR_COMPLETE_REINIT) ||
1469:Generated_Source\PSoC5/UART.c ****                 (retMode == UART_SEND_WAIT_REINIT) )
1470:Generated_Source\PSoC5/UART.c ****             {
1471:Generated_Source\PSoC5/UART.c ****                 do /* Wait until transmit complete */
1472:Generated_Source\PSoC5/UART.c ****                 {
1473:Generated_Source\PSoC5/UART.c ****                     tmpStat = UART_TXSTATUS_REG;
1474:Generated_Source\PSoC5/UART.c ****                 }
1475:Generated_Source\PSoC5/UART.c ****                 while(((uint8)~tmpStat & UART_TX_STS_COMPLETE) != 0u);
1476:Generated_Source\PSoC5/UART.c ****             }
1477:Generated_Source\PSoC5/UART.c **** 
1478:Generated_Source\PSoC5/UART.c ****             if( (retMode == UART_WAIT_FOR_COMPLETE_REINIT) ||
1479:Generated_Source\PSoC5/UART.c ****                 (retMode == UART_REINIT) ||
1480:Generated_Source\PSoC5/UART.c ****                 (retMode == UART_SEND_WAIT_REINIT) )
1481:Generated_Source\PSoC5/UART.c ****             {
1482:Generated_Source\PSoC5/UART.c ****                 UART_WriteControlRegister(UART_ReadControlRegister() &
1483:Generated_Source\PSoC5/UART.c ****                                               (uint8)~UART_CTRL_HD_SEND_BREAK);
1484:Generated_Source\PSoC5/UART.c ****             }
1485:Generated_Source\PSoC5/UART.c **** 
1486:Generated_Source\PSoC5/UART.c ****         #else /* UART_HD_ENABLED Full Duplex mode */
1487:Generated_Source\PSoC5/UART.c **** 
1488:Generated_Source\PSoC5/UART.c ****             static uint8 txPeriod;
1489:Generated_Source\PSoC5/UART.c **** 
1490:Generated_Source\PSoC5/UART.c ****             if( (retMode == UART_SEND_BREAK) ||
 1312              		.loc 1 1490 0
 1313 0006 08B1     		cbz	r0, .L133
 1314              		.loc 1 1490 0 is_stmt 0 discriminator 1
 1315 0008 0328     		cmp	r0, #3
 1316 000a 1BD1     		bne	.L134
 1317              	.L133:
1491:Generated_Source\PSoC5/UART.c ****                 (retMode == UART_SEND_WAIT_REINIT) )
1492:Generated_Source\PSoC5/UART.c ****             {
1493:Generated_Source\PSoC5/UART.c ****                 /* CTRL_HD_SEND_BREAK - skip to send parity bit at Break signal in Full Duplex mode
1494:Generated_Source\PSoC5/UART.c ****                 #if( (UART_PARITY_TYPE != UART__B_UART__NONE_REVB) || \
1495:Generated_Source\PSoC5/UART.c ****                                     (UART_PARITY_TYPE_SW != 0u) )
1496:Generated_Source\PSoC5/UART.c ****                     UART_WriteControlRegister(UART_ReadControlRegister() |
1497:Generated_Source\PSoC5/UART.c ****                                                           UART_CTRL_HD_SEND_BREAK);
ARM GAS  C:\Users\valer\AppData\Local\Temp\ccsjZDIz.s 			page 51


1498:Generated_Source\PSoC5/UART.c ****                 #endif /* End UART_PARITY_TYPE != UART__B_UART__NONE_REVB  */
1499:Generated_Source\PSoC5/UART.c **** 
1500:Generated_Source\PSoC5/UART.c ****                 #if(UART_TXCLKGEN_DP)
1501:Generated_Source\PSoC5/UART.c ****                     txPeriod = UART_TXBITCLKTX_COMPLETE_REG;
 1318              		.loc 1 1501 0 is_stmt 1
 1319 000c 104A     		ldr	r2, .L153+4
 1320 000e 1178     		ldrb	r1, [r2]	@ zero_extendqisi2
 1321 0010 1972     		strb	r1, [r3, #8]
1502:Generated_Source\PSoC5/UART.c ****                     UART_TXBITCLKTX_COMPLETE_REG = UART_TXBITCTR_BREAKBITS;
 1322              		.loc 1 1502 0
 1323 0012 6721     		movs	r1, #103
 1324 0014 1170     		strb	r1, [r2]
1503:Generated_Source\PSoC5/UART.c ****                 #else
1504:Generated_Source\PSoC5/UART.c ****                     txPeriod = UART_TXBITCTR_PERIOD_REG;
1505:Generated_Source\PSoC5/UART.c ****                     UART_TXBITCTR_PERIOD_REG = UART_TXBITCTR_BREAKBITS8X;
1506:Generated_Source\PSoC5/UART.c ****                 #endif /* End UART_TXCLKGEN_DP */
1507:Generated_Source\PSoC5/UART.c **** 
1508:Generated_Source\PSoC5/UART.c ****                 /* Send zeros */
1509:Generated_Source\PSoC5/UART.c ****                 UART_TXDATA_REG = 0u;
 1325              		.loc 1 1509 0
 1326 0016 0021     		movs	r1, #0
 1327 0018 5174     		strb	r1, [r2, #17]
1510:Generated_Source\PSoC5/UART.c **** 
1511:Generated_Source\PSoC5/UART.c ****                 do /* Wait until transmit starts */
1512:Generated_Source\PSoC5/UART.c ****                 {
1513:Generated_Source\PSoC5/UART.c ****                     tmpStat = UART_TXSTATUS_REG;
 1328              		.loc 1 1513 0
 1329 001a 0E49     		ldr	r1, .L153+8
 1330              	.L135:
 1331              		.loc 1 1513 0 is_stmt 0 discriminator 1
 1332 001c 0A78     		ldrb	r2, [r1]	@ zero_extendqisi2
 1333              	.LVL83:
1514:Generated_Source\PSoC5/UART.c ****                 }
1515:Generated_Source\PSoC5/UART.c ****                 while((tmpStat & UART_TX_STS_FIFO_EMPTY) != 0u);
 1334              		.loc 1 1515 0 is_stmt 1 discriminator 1
 1335 001e 9207     		lsls	r2, r2, #30
 1336              	.LVL84:
 1337 0020 FCD4     		bmi	.L135
1516:Generated_Source\PSoC5/UART.c ****             }
1517:Generated_Source\PSoC5/UART.c **** 
1518:Generated_Source\PSoC5/UART.c ****             if( (retMode == UART_WAIT_FOR_COMPLETE_REINIT) ||
 1338              		.loc 1 1518 0
 1339 0022 00F0FD02 		and	r2, r0, #253
 1340 0026 012A     		cmp	r2, #1
 1341              	.L152:
 1342 0028 03D0     		beq	.L136
 1343              	.L140:
1519:Generated_Source\PSoC5/UART.c ****                 (retMode == UART_SEND_WAIT_REINIT) )
1520:Generated_Source\PSoC5/UART.c ****             {
1521:Generated_Source\PSoC5/UART.c ****                 do /* Wait until transmit complete */
1522:Generated_Source\PSoC5/UART.c ****                 {
1523:Generated_Source\PSoC5/UART.c ****                     tmpStat = UART_TXSTATUS_REG;
1524:Generated_Source\PSoC5/UART.c ****                 }
1525:Generated_Source\PSoC5/UART.c ****                 while(((uint8)~tmpStat & UART_TX_STS_COMPLETE) != 0u);
1526:Generated_Source\PSoC5/UART.c ****             }
1527:Generated_Source\PSoC5/UART.c **** 
1528:Generated_Source\PSoC5/UART.c ****             if( (retMode == UART_WAIT_FOR_COMPLETE_REINIT) ||
ARM GAS  C:\Users\valer\AppData\Local\Temp\ccsjZDIz.s 			page 52


 1344              		.loc 1 1528 0
 1345 002a 0138     		subs	r0, r0, #1
 1346              	.LVL85:
 1347 002c 0228     		cmp	r0, #2
 1348 002e 05D9     		bls	.L137
 1349 0030 7047     		bx	lr
 1350              	.LVL86:
 1351              	.L136:
1523:Generated_Source\PSoC5/UART.c ****                 }
 1352              		.loc 1 1523 0
 1353 0032 0849     		ldr	r1, .L153+8
 1354              	.L139:
1523:Generated_Source\PSoC5/UART.c ****                 }
 1355              		.loc 1 1523 0 is_stmt 0 discriminator 1
 1356 0034 0A78     		ldrb	r2, [r1]	@ zero_extendqisi2
 1357              	.LVL87:
1525:Generated_Source\PSoC5/UART.c ****             }
 1358              		.loc 1 1525 0 is_stmt 1 discriminator 1
 1359 0036 D207     		lsls	r2, r2, #31
 1360              	.LVL88:
 1361 0038 FCD5     		bpl	.L139
 1362 003a F6E7     		b	.L140
 1363              	.LVL89:
 1364              	.L137:
1529:Generated_Source\PSoC5/UART.c ****                 (retMode == UART_REINIT) ||
1530:Generated_Source\PSoC5/UART.c ****                 (retMode == UART_SEND_WAIT_REINIT) )
1531:Generated_Source\PSoC5/UART.c ****             {
1532:Generated_Source\PSoC5/UART.c **** 
1533:Generated_Source\PSoC5/UART.c ****             #if(UART_TXCLKGEN_DP)
1534:Generated_Source\PSoC5/UART.c ****                 UART_TXBITCLKTX_COMPLETE_REG = txPeriod;
 1365              		.loc 1 1534 0
 1366 003c 1A7A     		ldrb	r2, [r3, #8]	@ zero_extendqisi2
 1367 003e 044B     		ldr	r3, .L153+4
 1368 0040 1A70     		strb	r2, [r3]
 1369              	.LBE2:
1535:Generated_Source\PSoC5/UART.c ****             #else
1536:Generated_Source\PSoC5/UART.c ****                 UART_TXBITCTR_PERIOD_REG = txPeriod;
1537:Generated_Source\PSoC5/UART.c ****             #endif /* End UART_TXCLKGEN_DP */
1538:Generated_Source\PSoC5/UART.c **** 
1539:Generated_Source\PSoC5/UART.c ****             #if( (UART_PARITY_TYPE != UART__B_UART__NONE_REVB) || \
1540:Generated_Source\PSoC5/UART.c ****                  (UART_PARITY_TYPE_SW != 0u) )
1541:Generated_Source\PSoC5/UART.c ****                 UART_WriteControlRegister(UART_ReadControlRegister() &
1542:Generated_Source\PSoC5/UART.c ****                                                       (uint8) ~UART_CTRL_HD_SEND_BREAK);
1543:Generated_Source\PSoC5/UART.c ****             #endif /* End UART_PARITY_TYPE != NONE */
1544:Generated_Source\PSoC5/UART.c ****             }
1545:Generated_Source\PSoC5/UART.c ****         #endif    /* End UART_HD_ENABLED */
1546:Generated_Source\PSoC5/UART.c ****         }
1547:Generated_Source\PSoC5/UART.c ****     }
 1370              		.loc 1 1547 0
 1371 0042 7047     		bx	lr
 1372              	.LVL90:
 1373              	.L134:
 1374              	.LBB3:
1518:Generated_Source\PSoC5/UART.c ****                 (retMode == UART_SEND_WAIT_REINIT) )
 1375              		.loc 1 1518 0
 1376 0044 0128     		cmp	r0, #1
 1377 0046 EFE7     		b	.L152
ARM GAS  C:\Users\valer\AppData\Local\Temp\ccsjZDIz.s 			page 53


 1378              	.L130:
 1379 0048 7047     		bx	lr
 1380              	.L154:
 1381 004a 00BF     		.align	2
 1382              	.L153:
 1383 004c 00000000 		.word	.LANCHOR0
 1384 0050 3A650040 		.word	1073767738
 1385 0054 6B650040 		.word	1073767787
 1386              	.LBE3:
 1387              		.cfi_endproc
 1388              	.LFE25:
 1389              		.size	UART_SendBreak, .-UART_SendBreak
 1390              		.section	.text.UART_SetTxAddressMode,"ax",%progbits
 1391              		.align	1
 1392              		.global	UART_SetTxAddressMode
 1393              		.thumb
 1394              		.thumb_func
 1395              		.type	UART_SetTxAddressMode, %function
 1396              	UART_SetTxAddressMode:
 1397              	.LFB26:
1548:Generated_Source\PSoC5/UART.c **** 
1549:Generated_Source\PSoC5/UART.c **** 
1550:Generated_Source\PSoC5/UART.c ****     /*******************************************************************************
1551:Generated_Source\PSoC5/UART.c ****     * Function Name: UART_SetTxAddressMode
1552:Generated_Source\PSoC5/UART.c ****     ********************************************************************************
1553:Generated_Source\PSoC5/UART.c ****     *
1554:Generated_Source\PSoC5/UART.c ****     * Summary:
1555:Generated_Source\PSoC5/UART.c ****     *  Configures the transmitter to signal the next bytes is address or data.
1556:Generated_Source\PSoC5/UART.c ****     *
1557:Generated_Source\PSoC5/UART.c ****     * Parameters:
1558:Generated_Source\PSoC5/UART.c ****     *  addressMode: 
1559:Generated_Source\PSoC5/UART.c ****     *       UART_SET_SPACE - Configure the transmitter to send the next
1560:Generated_Source\PSoC5/UART.c ****     *                                    byte as a data.
1561:Generated_Source\PSoC5/UART.c ****     *       UART_SET_MARK  - Configure the transmitter to send the next
1562:Generated_Source\PSoC5/UART.c ****     *                                    byte as an address.
1563:Generated_Source\PSoC5/UART.c ****     *
1564:Generated_Source\PSoC5/UART.c ****     * Return:
1565:Generated_Source\PSoC5/UART.c ****     *  None.
1566:Generated_Source\PSoC5/UART.c ****     *
1567:Generated_Source\PSoC5/UART.c ****     * Side Effects:
1568:Generated_Source\PSoC5/UART.c ****     *  This function sets and clears UART_CTRL_MARK bit in the Control
1569:Generated_Source\PSoC5/UART.c ****     *  register.
1570:Generated_Source\PSoC5/UART.c ****     *
1571:Generated_Source\PSoC5/UART.c ****     *******************************************************************************/
1572:Generated_Source\PSoC5/UART.c ****     void UART_SetTxAddressMode(uint8 addressMode) 
1573:Generated_Source\PSoC5/UART.c ****     {
 1398              		.loc 1 1573 0
 1399              		.cfi_startproc
 1400              		@ args = 0, pretend = 0, frame = 0
 1401              		@ frame_needed = 0, uses_anonymous_args = 0
 1402              		@ link register save eliminated.
 1403              	.LVL91:
 1404 0000 7047     		bx	lr
 1405              		.cfi_endproc
 1406              	.LFE26:
 1407              		.size	UART_SetTxAddressMode, .-UART_SetTxAddressMode
 1408              		.global	UART_rxBufferOverflow
ARM GAS  C:\Users\valer\AppData\Local\Temp\ccsjZDIz.s 			page 54


 1409              		.global	UART_rxBufferLoopDetect
 1410              		.global	UART_rxBufferWrite
 1411              		.global	UART_rxBufferRead
 1412              		.comm	UART_rxBuffer,8,1
 1413              		.global	UART_errorStatus
 1414              		.global	UART_txBufferWrite
 1415              		.global	UART_txBufferRead
 1416              		.comm	UART_txBuffer,8,1
 1417              		.global	UART_initVar
 1418              		.bss
 1419              		.set	.LANCHOR0,. + 0
 1420              		.type	UART_errorStatus, %object
 1421              		.size	UART_errorStatus, 1
 1422              	UART_errorStatus:
 1423 0000 00       		.space	1
 1424              		.type	UART_initVar, %object
 1425              		.size	UART_initVar, 1
 1426              	UART_initVar:
 1427 0001 00       		.space	1
 1428              		.type	UART_rxBufferRead, %object
 1429              		.size	UART_rxBufferRead, 1
 1430              	UART_rxBufferRead:
 1431 0002 00       		.space	1
 1432              		.type	UART_rxBufferWrite, %object
 1433              		.size	UART_rxBufferWrite, 1
 1434              	UART_rxBufferWrite:
 1435 0003 00       		.space	1
 1436              		.type	UART_rxBufferLoopDetect, %object
 1437              		.size	UART_rxBufferLoopDetect, 1
 1438              	UART_rxBufferLoopDetect:
 1439 0004 00       		.space	1
 1440              		.type	UART_rxBufferOverflow, %object
 1441              		.size	UART_rxBufferOverflow, 1
 1442              	UART_rxBufferOverflow:
 1443 0005 00       		.space	1
 1444              		.type	UART_txBufferRead, %object
 1445              		.size	UART_txBufferRead, 1
 1446              	UART_txBufferRead:
 1447 0006 00       		.space	1
 1448              		.type	UART_txBufferWrite, %object
 1449              		.size	UART_txBufferWrite, 1
 1450              	UART_txBufferWrite:
 1451 0007 00       		.space	1
 1452              		.type	txPeriod.5150, %object
 1453              		.size	txPeriod.5150, 1
 1454              	txPeriod.5150:
 1455 0008 00       		.space	1
 1456              		.text
 1457              	.Letext0:
 1458              		.file 2 "Generated_Source\\PSoC5\\cytypes.h"
 1459              		.file 3 "Generated_Source\\PSoC5\\CyLib.h"
 1460              		.file 4 "Generated_Source\\PSoC5\\UART_IntClock.h"